(lp0
V\ufeffEmotion
p1
aVOther
p2
aVDisgust
p3
aVDisgust
p4
aVEnjoyment
p5
aVEnjoyment
p6
aVAnger
p7
aVOther
p8
aVSurprise
p9
aVAnger
p10
aVSadness
p11
aVEnjoyment
p12
aVDisgust
p13
aVOther
p14
aVEnjoyment
p15
aVDisgust
p16
aVSadness
p17
aVOther
p18
aVOther
p19
aVFear
p20
aVEnjoyment
p21
aVAnger
p22
aVDisgust
p23
aVEnjoyment
p24
aVEnjoyment
p25
aVSadness
p26
aVSadness
p27
aVAnger
p28
aVFear
p29
aVFear
p30
aVOther
p31
aVSurprise
p32
aVFear
p33
aVSadness
p34
aVSadness
p35
aVFear
p36
aVEnjoyment
p37
aVOther
p38
aVOther
p39
aVSadness
p40
aVEnjoyment
p41
aVAnger
p42
aVSadness
p43
aVSadness
p44
aVDisgust
p45
aVOther
p46
aVOther
p47
aVDisgust
p48
aVAnger
p49
aVSurprise
p50
aVDisgust
p51
aVSadness
p52
aVSadness
p53
aVEnjoyment
p54
aVSadness
p55
aVDisgust
p56
aVSadness
p57
aVAnger
p58
aVDisgust
p59
aVOther
p60
aVEnjoyment
p61
aVAnger
p62
aVSadness
p63
aVSadness
p64
aVEnjoyment
p65
aVDisgust
p66
aVDisgust
p67
aVEnjoyment
p68
aVSadness
p69
aVSadness
p70
aVEnjoyment
p71
aVSurprise
p72
aVDisgust
p73
aVEnjoyment
p74
aVEnjoyment
p75
aVSadness
p76
aVSadness
p77
aVFear
p78
aVEnjoyment
p79
aVEnjoyment
p80
aVEnjoyment
p81
aVSurprise
p82
aVDisgust
p83
aVEnjoyment
p84
aVEnjoyment
p85
aVSurprise
p86
aVSadness
p87
aVDisgust
p88
aVEnjoyment
p89
aVEnjoyment
p90
aVDisgust
p91
aVEnjoyment
p92
aVDisgust
p93
aVOther
p94
aVEnjoyment
p95
aVEnjoyment
p96
aVSadness
p97
aVAnger
p98
aVEnjoyment
p99
aVSadness
p100
aVOther
p101
aVAnger
p102
aVSurprise
p103
aVAnger
p104
aVDisgust
p105
aVDisgust
p106
aVFear
p107
aVSadness
p108
aVEnjoyment
p109
aVAnger
p110
aVEnjoyment
p111
aVSadness
p112
aVAnger
p113
aVFear
p114
aVDisgust
p115
aVDisgust
p116
aVSadness
p117
aVOther
p118
aVEnjoyment
p119
aVSadness
p120
aVEnjoyment
p121
aVEnjoyment
p122
aVOther
p123
aVSadness
p124
aVSurprise
p125
aVSadness
p126
aVDisgust
p127
aVDisgust
p128
aVDisgust
p129
aVDisgust
p130
aVSurprise
p131
aVSadness
p132
aVDisgust
p133
aVFear
p134
aVEnjoyment
p135
aVDisgust
p136
aVSadness
p137
aVDisgust
p138
aVDisgust
p139
aVDisgust
p140
aVEnjoyment
p141
aVFear
p142
aVDisgust
p143
aVSurprise
p144
aVEnjoyment
p145
aVSadness
p146
aVSadness
p147
aVOther
p148
aVEnjoyment
p149
aVDisgust
p150
aVOther
p151
aVSurprise
p152
aVEnjoyment
p153
aVDisgust
p154
aVEnjoyment
p155
aVDisgust
p156
aVOther
p157
aVSadness
p158
aVEnjoyment
p159
aVDisgust
p160
aVDisgust
p161
aVOther
p162
aVOther
p163
aVDisgust
p164
aVEnjoyment
p165
aVOther
p166
aVDisgust
p167
aVEnjoyment
p168
aVSadness
p169
aVFear
p170
aVEnjoyment
p171
aVAnger
p172
aVSadness
p173
aVEnjoyment
p174
aVDisgust
p175
aVFear
p176
aVEnjoyment
p177
aVSurprise
p178
aVSurprise
p179
aVSurprise
p180
aVSadness
p181
aVDisgust
p182
aVEnjoyment
p183
aVEnjoyment
p184
aVEnjoyment
p185
aVDisgust
p186
aVDisgust
p187
aVAnger
p188
aVAnger
p189
aVAnger
p190
aVDisgust
p191
aVSadness
p192
aVDisgust
p193
aVEnjoyment
p194
aVDisgust
p195
aVDisgust
p196
aVEnjoyment
p197
aVSadness
p198
aVEnjoyment
p199
aVSadness
p200
aVEnjoyment
p201
aVDisgust
p202
aVDisgust
p203
aVEnjoyment
p204
aVFear
p205
aVAnger
p206
aVEnjoyment
p207
aVSadness
p208
aVEnjoyment
p209
aVFear
p210
aVFear
p211
aVEnjoyment
p212
aVSurprise
p213
aVOther
p214
aVEnjoyment
p215
aVDisgust
p216
aVDisgust
p217
aVDisgust
p218
aVEnjoyment
p219
aVDisgust
p220
aVEnjoyment
p221
aVSurprise
p222
aVSadness
p223
aVAnger
p224
aVOther
p225
aVFear
p226
aVEnjoyment
p227
aVEnjoyment
p228
aVEnjoyment
p229
aVOther
p230
aVEnjoyment
p231
aVEnjoyment
p232
aVEnjoyment
p233
aVEnjoyment
p234
aVAnger
p235
aVSurprise
p236
aVAnger
p237
aVAnger
p238
aVSadness
p239
aVAnger
p240
aVAnger
p241
aVSadness
p242
aVDisgust
p243
aVEnjoyment
p244
aVEnjoyment
p245
aVOther
p246
aVDisgust
p247
aVOther
p248
aVEnjoyment
p249
aVOther
p250
aVOther
p251
aVAnger
p252
aVSadness
p253
aVEnjoyment
p254
aVSurprise
p255
aVEnjoyment
p256
aVEnjoyment
p257
aVEnjoyment
p258
aVDisgust
p259
aVSadness
p260
aVDisgust
p261
aVDisgust
p262
aVSadness
p263
aVSadness
p264
aVEnjoyment
p265
aVAnger
p266
aVEnjoyment
p267
aVDisgust
p268
aVDisgust
p269
aVEnjoyment
p270
aVEnjoyment
p271
aVDisgust
p272
aVSurprise
p273
aVSadness
p274
aVAnger
p275
aVSurprise
p276
aVOther
p277
aVOther
p278
aVAnger
p279
aVDisgust
p280
aVSadness
p281
aVAnger
p282
aVDisgust
p283
aVSadness
p284
aVEnjoyment
p285
aVEnjoyment
p286
aVEnjoyment
p287
aVOther
p288
aVOther
p289
aVOther
p290
aVDisgust
p291
aVFear
p292
aVSadness
p293
aVFear
p294
aVEnjoyment
p295
aVDisgust
p296
aVEnjoyment
p297
aVEnjoyment
p298
aVDisgust
p299
aVEnjoyment
p300
aVSadness
p301
aVEnjoyment
p302
aVEnjoyment
p303
aVDisgust
p304
aVOther
p305
aVDisgust
p306
aVDisgust
p307
aVFear
p308
aVSadness
p309
aVDisgust
p310
aVEnjoyment
p311
aVSadness
p312
aVDisgust
p313
aVEnjoyment
p314
aVDisgust
p315
aVSadness
p316
aVSadness
p317
aVEnjoyment
p318
aVEnjoyment
p319
aVDisgust
p320
aVEnjoyment
p321
aVSadness
p322
aVSadness
p323
aVEnjoyment
p324
aVOther
p325
aVEnjoyment
p326
aVOther
p327
aVDisgust
p328
aVSadness
p329
aVEnjoyment
p330
aVAnger
p331
aVDisgust
p332
aVFear
p333
aVEnjoyment
p334
aVOther
p335
aVOther
p336
aVFear
p337
aVOther
p338
aVDisgust
p339
aVEnjoyment
p340
aVDisgust
p341
aVSadness
p342
aVEnjoyment
p343
aVSadness
p344
aVAnger
p345
aVEnjoyment
p346
aVOther
p347
aVSadness
p348
aVSurprise
p349
aVEnjoyment
p350
aVOther
p351
aVFear
p352
aVDisgust
p353
aVEnjoyment
p354
aVEnjoyment
p355
aVOther
p356
aVSadness
p357
aVOther
p358
aVEnjoyment
p359
aVEnjoyment
p360
aVEnjoyment
p361
aVAnger
p362
aVOther
p363
aVDisgust
p364
aVDisgust
p365
aVSadness
p366
aVOther
p367
aVDisgust
p368
aVDisgust
p369
aVDisgust
p370
aVOther
p371
aVEnjoyment
p372
aVDisgust
p373
aVDisgust
p374
aVFear
p375
aVAnger
p376
aVDisgust
p377
aVOther
p378
aVEnjoyment
p379
aVOther
p380
aVOther
p381
aVOther
p382
aVDisgust
p383
aVAnger
p384
aVOther
p385
aVSadness
p386
aVEnjoyment
p387
aVAnger
p388
aVSurprise
p389
aVOther
p390
aVDisgust
p391
aVOther
p392
aVAnger
p393
aVSadness
p394
aVEnjoyment
p395
aVEnjoyment
p396
aVOther
p397
aVFear
p398
aVSadness
p399
aVFear
p400
aVEnjoyment
p401
aVEnjoyment
p402
aVDisgust
p403
aVEnjoyment
p404
aVDisgust
p405
aVSadness
p406
aVOther
p407
aVDisgust
p408
aVEnjoyment
p409
aVEnjoyment
p410
aVOther
p411
aVDisgust
p412
aVOther
p413
aVOther
p414
aVSurprise
p415
aVDisgust
p416
aVOther
p417
aVFear
p418
aVSadness
p419
aVSadness
p420
aVEnjoyment
p421
aVEnjoyment
p422
aVSurprise
p423
aVDisgust
p424
aVSadness
p425
aVOther
p426
aVDisgust
p427
aVOther
p428
aVOther
p429
aVOther
p430
aVFear
p431
aVSadness
p432
aVAnger
p433
aVSadness
p434
aVDisgust
p435
aVFear
p436
aVEnjoyment
p437
aVDisgust
p438
aVAnger
p439
aVDisgust
p440
aVDisgust
p441
aVDisgust
p442
aVOther
p443
aVAnger
p444
aVEnjoyment
p445
aVEnjoyment
p446
aVSurprise
p447
aVSadness
p448
aVDisgust
p449
aVOther
p450
aVEnjoyment
p451
aVEnjoyment
p452
aVEnjoyment
p453
aVOther
p454
aVEnjoyment
p455
aVEnjoyment
p456
aVAnger
p457
aVEnjoyment
p458
aVEnjoyment
p459
aVDisgust
p460
aVSadness
p461
aVAnger
p462
aVSadness
p463
aVSadness
p464
aVSadness
p465
aVSadness
p466
aVFear
p467
aVSadness
p468
aVSadness
p469
aVEnjoyment
p470
aVOther
p471
aVEnjoyment
p472
aVAnger
p473
aVDisgust
p474
aVSadness
p475
aVEnjoyment
p476
aVEnjoyment
p477
aVDisgust
p478
aVOther
p479
aVOther
p480
aVDisgust
p481
aVDisgust
p482
aVOther
p483
aVSurprise
p484
aVSadness
p485
aVDisgust
p486
aVSadness
p487
aVOther
p488
aVEnjoyment
p489
aVSurprise
p490
aVEnjoyment
p491
aVDisgust
p492
aVEnjoyment
p493
aVEnjoyment
p494
aVEnjoyment
p495
aVOther
p496
aVSadness
p497
aVEnjoyment
p498
aVOther
p499
aVOther
p500
aVEnjoyment
p501
aVEnjoyment
p502
aVDisgust
p503
aVDisgust
p504
aVDisgust
p505
aVOther
p506
aVEnjoyment
p507
aVSurprise
p508
aVSadness
p509
aVDisgust
p510
aVAnger
p511
aVEnjoyment
p512
aVEnjoyment
p513
aVDisgust
p514
aVOther
p515
aVDisgust
p516
aVEnjoyment
p517
aVOther
p518
aVSadness
p519
aVEnjoyment
p520
aVDisgust
p521
aVEnjoyment
p522
aVSadness
p523
aVOther
p524
aVDisgust
p525
aVSadness
p526
aVEnjoyment
p527
aVSurprise
p528
aVDisgust
p529
aVSadness
p530
aVSurprise
p531
aVAnger
p532
aVSadness
p533
aVSadness
p534
aVSadness
p535
aVOther
p536
aVAnger
p537
aVSadness
p538
aVAnger
p539
aVOther
p540
aVFear
p541
aVAnger
p542
aVFear
p543
aVEnjoyment
p544
aVFear
p545
aVEnjoyment
p546
aVDisgust
p547
aVOther
p548
aVOther
p549
aVAnger
p550
aVSadness
p551
aVSadness
p552
aVFear
p553
aVSadness
p554
aVFear
p555
aVDisgust
p556
aVDisgust
p557
aVDisgust
p558
aVDisgust
p559
aVEnjoyment
p560
aVOther
p561
aVSadness
p562
aVFear
p563
aVAnger
p564
aVAnger
p565
aVSurprise
p566
aVSadness
p567
aVOther
p568
aVOther
p569
aVOther
p570
aVSadness
p571
aVEnjoyment
p572
aVDisgust
p573
aVSurprise
p574
aVDisgust
p575
aVAnger
p576
aVDisgust
p577
aVEnjoyment
p578
aVEnjoyment
p579
aVDisgust
p580
aVEnjoyment
p581
aVOther
p582
aVDisgust
p583
aVEnjoyment
p584
aVSadness
p585
aVOther
p586
aVSadness
p587
aVOther
p588
aVSadness
p589
aVSadness
p590
aVOther
p591
aVDisgust
p592
aVEnjoyment
p593
aVSadness
p594
aVEnjoyment
p595
aVEnjoyment
p596
aVSadness
p597
aVFear
p598
aVDisgust
p599
aVSadness
p600
aVSadness
p601
aVSurprise
p602
aVDisgust
p603
aVEnjoyment
p604
aVDisgust
p605
aVOther
p606
aVDisgust
p607
aVDisgust
p608
aVEnjoyment
p609
aVOther
p610
aVDisgust
p611
aVSadness
p612
aVEnjoyment
p613
aVEnjoyment
p614
aVAnger
p615
aVSadness
p616
aVEnjoyment
p617
aVSadness
p618
aVOther
p619
aVAnger
p620
aVOther
p621
aVOther
p622
aVEnjoyment
p623
aVDisgust
p624
aVDisgust
p625
aVEnjoyment
p626
aVEnjoyment
p627
aVEnjoyment
p628
aVOther
p629
aVEnjoyment
p630
aVDisgust
p631
aVEnjoyment
p632
aVSurprise
p633
aVSadness
p634
aVEnjoyment
p635
aVEnjoyment
p636
aVDisgust
p637
aVSadness
p638
aVAnger
p639
aVEnjoyment
p640
aVOther
p641
aVDisgust
p642
aVSadness
p643
aVSadness
p644
aVEnjoyment
p645
aVAnger
p646
aVEnjoyment
p647
aVDisgust
p648
aVAnger
p649
aVEnjoyment
p650
aVEnjoyment
p651
aVSadness
p652
aVDisgust
p653
aVOther
p654
aVDisgust
p655
aVDisgust
p656
aVSadness
p657
aVDisgust
p658
aVDisgust
p659
aVSurprise
p660
aVAnger
p661
aVSadness
p662
aVAnger
p663
aVEnjoyment
p664
aVDisgust
p665
aVEnjoyment
p666
aVEnjoyment
p667
aVOther
p668
aVSadness
p669
aVEnjoyment
p670
aVAnger
p671
aVOther
p672
aVOther
p673
aVOther
p674
aVAnger
p675
aVSadness
p676
aVDisgust
p677
aVDisgust
p678
aVSadness
p679
aVEnjoyment
p680
aVDisgust
p681
aVSadness
p682
aVEnjoyment
p683
aVSadness
p684
aVSadness
p685
aVAnger
p686
aVOther
p687
aVDisgust
p688
aVEnjoyment
p689
aVFear
p690
aVSadness
p691
aVDisgust
p692
aVOther
p693
aVEnjoyment
p694
aVFear
p695
aVDisgust
p696
aVEnjoyment
p697
aVFear
p698
aVEnjoyment
p699
aVEnjoyment
p700
aVDisgust
p701
aVDisgust
p702
aVDisgust
p703
aVOther
p704
aVEnjoyment
p705
aVOther
p706
aVAnger
p707
aVEnjoyment
p708
aVSadness
p709
aVDisgust
p710
aVSadness
p711
aVOther
p712
aVAnger
p713
aVAnger
p714
aVOther
p715
aVFear
p716
aVSurprise
p717
aVFear
p718
aVFear
p719
aVAnger
p720
aVEnjoyment
p721
aVEnjoyment
p722
aVDisgust
p723
aVDisgust
p724
aVEnjoyment
p725
aVDisgust
p726
aVAnger
p727
aVEnjoyment
p728
aVDisgust
p729
aVEnjoyment
p730
aVEnjoyment
p731
aVEnjoyment
p732
aVEnjoyment
p733
aVEnjoyment
p734
aVSadness
p735
aVEnjoyment
p736
aVSadness
p737
aVFear
p738
aVEnjoyment
p739
aVSurprise
p740
aVEnjoyment
p741
aVOther
p742
aVEnjoyment
p743
aVDisgust
p744
aVFear
p745
aVSadness
p746
aVFear
p747
aVEnjoyment
p748
aVDisgust
p749
aVOther
p750
aVOther
p751
aVOther
p752
aVDisgust
p753
aVDisgust
p754
aVDisgust
p755
aVEnjoyment
p756
aVEnjoyment
p757
aVDisgust
p758
aVDisgust
p759
aVDisgust
p760
aVOther
p761
aVSurprise
p762
aVDisgust
p763
aVAnger
p764
aVEnjoyment
p765
aVAnger
p766
aVOther
p767
aVEnjoyment
p768
aVAnger
p769
aVSurprise
p770
aVSadness
p771
aVEnjoyment
p772
aVSadness
p773
aVEnjoyment
p774
aVEnjoyment
p775
aVAnger
p776
aVEnjoyment
p777
aVDisgust
p778
aVAnger
p779
aVDisgust
p780
aVEnjoyment
p781
aVEnjoyment
p782
aVEnjoyment
p783
aVDisgust
p784
aVAnger
p785
aVEnjoyment
p786
aVEnjoyment
p787
aVEnjoyment
p788
aVEnjoyment
p789
aVFear
p790
aVFear
p791
aVDisgust
p792
aVDisgust
p793
aVEnjoyment
p794
aVDisgust
p795
aVAnger
p796
aVOther
p797
aVEnjoyment
p798
aVOther
p799
aVSadness
p800
aVSadness
p801
aVSadness
p802
aVFear
p803
aVFear
p804
aVDisgust
p805
aVOther
p806
aVSadness
p807
aVEnjoyment
p808
aVEnjoyment
p809
aVEnjoyment
p810
aVEnjoyment
p811
aVEnjoyment
p812
aVOther
p813
aVAnger
p814
aVEnjoyment
p815
aVDisgust
p816
aVEnjoyment
p817
aVEnjoyment
p818
aVEnjoyment
p819
aVOther
p820
aVEnjoyment
p821
aVSadness
p822
aVEnjoyment
p823
aVSadness
p824
aVDisgust
p825
aVOther
p826
aVEnjoyment
p827
aVSurprise
p828
aVSadness
p829
aVDisgust
p830
aVFear
p831
aVDisgust
p832
aVEnjoyment
p833
aVSadness
p834
aVOther
p835
aVEnjoyment
p836
aVOther
p837
aVSadness
p838
aVEnjoyment
p839
aVOther
p840
aVSadness
p841
aVDisgust
p842
aVEnjoyment
p843
aVDisgust
p844
aVDisgust
p845
aVEnjoyment
p846
aVDisgust
p847
aVEnjoyment
p848
aVEnjoyment
p849
aVOther
p850
aVEnjoyment
p851
aVOther
p852
aVAnger
p853
aVSadness
p854
aVDisgust
p855
aVEnjoyment
p856
aVSadness
p857
aVSadness
p858
aVEnjoyment
p859
aVOther
p860
aVAnger
p861
aVEnjoyment
p862
aVEnjoyment
p863
aVEnjoyment
p864
aVEnjoyment
p865
aVSadness
p866
aVEnjoyment
p867
aVEnjoyment
p868
aVDisgust
p869
aVSadness
p870
aVDisgust
p871
aVOther
p872
aVSadness
p873
aVSadness
p874
aVAnger
p875
aVOther
p876
aVDisgust
p877
aVSadness
p878
aVDisgust
p879
aVDisgust
p880
aVFear
p881
aVSadness
p882
aVDisgust
p883
aVSadness
p884
aVDisgust
p885
aVSadness
p886
aVDisgust
p887
aVOther
p888
aVFear
p889
aVEnjoyment
p890
aVSadness
p891
aVEnjoyment
p892
aVSadness
p893
aVOther
p894
aVSadness
p895
aVOther
p896
aVFear
p897
aVOther
p898
aVOther
p899
aVOther
p900
aVOther
p901
aVAnger
p902
aVSadness
p903
aVDisgust
p904
aVAnger
p905
aVFear
p906
aVAnger
p907
aVFear
p908
aVSadness
p909
aVDisgust
p910
aVEnjoyment
p911
aVDisgust
p912
aVEnjoyment
p913
aVDisgust
p914
aVDisgust
p915
aVEnjoyment
p916
aVSadness
p917
aVFear
p918
aVOther
p919
aVSadness
p920
aVAnger
p921
aVEnjoyment
p922
aVEnjoyment
p923
aVSadness
p924
aVSurprise
p925
aVEnjoyment
p926
aVEnjoyment
p927
aVEnjoyment
p928
aVEnjoyment
p929
aVDisgust
p930
aVDisgust
p931
aVSadness
p932
aVFear
p933
aVDisgust
p934
aVSadness
p935
aVAnger
p936
aVEnjoyment
p937
aVOther
p938
aVOther
p939
aVOther
p940
aVEnjoyment
p941
aVDisgust
p942
aVEnjoyment
p943
aVSadness
p944
aVFear
p945
aVEnjoyment
p946
aVEnjoyment
p947
aVOther
p948
aVDisgust
p949
aVFear
p950
aVEnjoyment
p951
aVDisgust
p952
aVOther
p953
aVAnger
p954
aVSurprise
p955
aVSadness
p956
aVOther
p957
aVDisgust
p958
aVFear
p959
aVFear
p960
aVSadness
p961
aVDisgust
p962
aVOther
p963
aVOther
p964
aVEnjoyment
p965
aVOther
p966
aVDisgust
p967
aVSurprise
p968
aVAnger
p969
aVSadness
p970
aVSadness
p971
aVSadness
p972
aVSadness
p973
aVDisgust
p974
aVEnjoyment
p975
aVEnjoyment
p976
aVEnjoyment
p977
aVOther
p978
aVEnjoyment
p979
aVDisgust
p980
aVSadness
p981
aVDisgust
p982
aVFear
p983
aVDisgust
p984
aVOther
p985
aVSadness
p986
aVDisgust
p987
aVOther
p988
aVOther
p989
aVAnger
p990
aVEnjoyment
p991
aVOther
p992
aVEnjoyment
p993
aVSurprise
p994
aVSadness
p995
aVAnger
p996
aVEnjoyment
p997
aVDisgust
p998
aVDisgust
p999
aVOther
p1000
aVDisgust
p1001
aVEnjoyment
p1002
aVAnger
p1003
aVDisgust
p1004
aVEnjoyment
p1005
aVEnjoyment
p1006
aVEnjoyment
p1007
aVAnger
p1008
aVEnjoyment
p1009
aVSadness
p1010
aVOther
p1011
aVFear
p1012
aVOther
p1013
aVAnger
p1014
aVDisgust
p1015
aVFear
p1016
aVSadness
p1017
aVEnjoyment
p1018
aVOther
p1019
aVEnjoyment
p1020
aVDisgust
p1021
aVDisgust
p1022
aVFear
p1023
aVDisgust
p1024
aVSadness
p1025
aVDisgust
p1026
aVDisgust
p1027
aVOther
p1028
aVFear
p1029
aVOther
p1030
aVAnger
p1031
aVSurprise
p1032
aVSadness
p1033
aVAnger
p1034
aVEnjoyment
p1035
aVSadness
p1036
aVSadness
p1037
aVDisgust
p1038
aVEnjoyment
p1039
aVDisgust
p1040
aVSadness
p1041
aVDisgust
p1042
aVEnjoyment
p1043
aVDisgust
p1044
aVSadness
p1045
aVEnjoyment
p1046
aVEnjoyment
p1047
aVEnjoyment
p1048
aVDisgust
p1049
aVAnger
p1050
aVAnger
p1051
aVSadness
p1052
aVEnjoyment
p1053
aVEnjoyment
p1054
aVSadness
p1055
aVEnjoyment
p1056
aVEnjoyment
p1057
aVDisgust
p1058
aVFear
p1059
aVOther
p1060
aVSadness
p1061
aVSadness
p1062
aVSurprise
p1063
aVDisgust
p1064
aVSadness
p1065
aVDisgust
p1066
aVDisgust
p1067
aVFear
p1068
aVFear
p1069
aVEnjoyment
p1070
aVEnjoyment
p1071
aVSadness
p1072
aVEnjoyment
p1073
aVSurprise
p1074
aVSadness
p1075
aVDisgust
p1076
aVDisgust
p1077
aVEnjoyment
p1078
aVAnger
p1079
aVAnger
p1080
aVOther
p1081
aVSadness
p1082
aVEnjoyment
p1083
aVSurprise
p1084
aVSadness
p1085
aVEnjoyment
p1086
aVOther
p1087
aVSurprise
p1088
aVEnjoyment
p1089
aVOther
p1090
aVDisgust
p1091
aVOther
p1092
aVDisgust
p1093
aVOther
p1094
aVFear
p1095
aVDisgust
p1096
aVOther
p1097
aVSadness
p1098
aVDisgust
p1099
aVSurprise
p1100
aVEnjoyment
p1101
aVFear
p1102
aVEnjoyment
p1103
aVSadness
p1104
aVEnjoyment
p1105
aVEnjoyment
p1106
aVOther
p1107
aVOther
p1108
aVEnjoyment
p1109
aVEnjoyment
p1110
aVDisgust
p1111
aVSadness
p1112
aVDisgust
p1113
aVDisgust
p1114
aVEnjoyment
p1115
aVEnjoyment
p1116
aVEnjoyment
p1117
aVOther
p1118
aVSadness
p1119
aVOther
p1120
aVOther
p1121
aVEnjoyment
p1122
aVSurprise
p1123
aVOther
p1124
aVOther
p1125
aVFear
p1126
aVDisgust
p1127
aVSadness
p1128
aVEnjoyment
p1129
aVDisgust
p1130
aVEnjoyment
p1131
aVEnjoyment
p1132
aVOther
p1133
aVFear
p1134
aVAnger
p1135
aVAnger
p1136
aVEnjoyment
p1137
aVDisgust
p1138
aVSadness
p1139
aVEnjoyment
p1140
aVDisgust
p1141
aVOther
p1142
aVDisgust
p1143
aVSadness
p1144
aVEnjoyment
p1145
aVDisgust
p1146
aVOther
p1147
aVOther
p1148
aVEnjoyment
p1149
aVEnjoyment
p1150
aVDisgust
p1151
aVDisgust
p1152
aVEnjoyment
p1153
aVSadness
p1154
aVEnjoyment
p1155
aVFear
p1156
aVEnjoyment
p1157
aVEnjoyment
p1158
aVDisgust
p1159
aVEnjoyment
p1160
aVOther
p1161
aVDisgust
p1162
aVEnjoyment
p1163
aVAnger
p1164
aVSadness
p1165
aVDisgust
p1166
aVEnjoyment
p1167
aVSadness
p1168
aVEnjoyment
p1169
aVOther
p1170
aVDisgust
p1171
aVAnger
p1172
aVOther
p1173
aVSurprise
p1174
aVEnjoyment
p1175
aVOther
p1176
aVSadness
p1177
aVEnjoyment
p1178
aVOther
p1179
aVSadness
p1180
aVDisgust
p1181
aVOther
p1182
aVEnjoyment
p1183
aVSadness
p1184
aVDisgust
p1185
aVDisgust
p1186
aVSadness
p1187
aVEnjoyment
p1188
aVFear
p1189
aVDisgust
p1190
aVAnger
p1191
aVSadness
p1192
aVOther
p1193
aVOther
p1194
aVOther
p1195
aVAnger
p1196
aVOther
p1197
aVEnjoyment
p1198
aVSadness
p1199
aVEnjoyment
p1200
aVSurprise
p1201
aVDisgust
p1202
aVAnger
p1203
aVEnjoyment
p1204
aVOther
p1205
aVOther
p1206
aVDisgust
p1207
aVEnjoyment
p1208
aVEnjoyment
p1209
aVEnjoyment
p1210
aVSadness
p1211
aVDisgust
p1212
aVEnjoyment
p1213
aVEnjoyment
p1214
aVOther
p1215
aVAnger
p1216
aVEnjoyment
p1217
aVEnjoyment
p1218
aVEnjoyment
p1219
aVOther
p1220
aVAnger
p1221
aVOther
p1222
aVOther
p1223
aVFear
p1224
aVOther
p1225
aVEnjoyment
p1226
aVEnjoyment
p1227
aVEnjoyment
p1228
aVSadness
p1229
aVEnjoyment
p1230
aVSadness
p1231
aVDisgust
p1232
aVSadness
p1233
aVFear
p1234
aVDisgust
p1235
aVSadness
p1236
aVFear
p1237
aVDisgust
p1238
aVOther
p1239
aVSadness
p1240
aVSadness
p1241
aVOther
p1242
aVFear
p1243
aVEnjoyment
p1244
aVEnjoyment
p1245
aVEnjoyment
p1246
aVDisgust
p1247
aVDisgust
p1248
aVSurprise
p1249
aVFear
p1250
aVAnger
p1251
aVSadness
p1252
aVSadness
p1253
aVEnjoyment
p1254
aVOther
p1255
aVEnjoyment
p1256
aVEnjoyment
p1257
aVDisgust
p1258
aVEnjoyment
p1259
aVEnjoyment
p1260
aVAnger
p1261
aVDisgust
p1262
aVSadness
p1263
aVDisgust
p1264
aVEnjoyment
p1265
aVDisgust
p1266
aVDisgust
p1267
aVSadness
p1268
aVOther
p1269
aVSadness
p1270
aVSadness
p1271
aVOther
p1272
aVAnger
p1273
aVEnjoyment
p1274
aVOther
p1275
aVEnjoyment
p1276
aVDisgust
p1277
aVDisgust
p1278
aVSurprise
p1279
aVAnger
p1280
aVSadness
p1281
aVDisgust
p1282
aVSadness
p1283
aVEnjoyment
p1284
aVDisgust
p1285
aVOther
p1286
aVSadness
p1287
aVEnjoyment
p1288
aVFear
p1289
aVSadness
p1290
aVOther
p1291
aVEnjoyment
p1292
aVEnjoyment
p1293
aVEnjoyment
p1294
aVAnger
p1295
aVSurprise
p1296
aVOther
p1297
aVEnjoyment
p1298
aVEnjoyment
p1299
aVAnger
p1300
aVOther
p1301
aVAnger
p1302
aVAnger
p1303
aVSurprise
p1304
aVOther
p1305
aVDisgust
p1306
aVOther
p1307
aVSadness
p1308
aVDisgust
p1309
aVEnjoyment
p1310
aVEnjoyment
p1311
aVEnjoyment
p1312
aVDisgust
p1313
aVSadness
p1314
aVOther
p1315
aVEnjoyment
p1316
aVFear
p1317
aVSurprise
p1318
aVSurprise
p1319
aVOther
p1320
aVDisgust
p1321
aVSadness
p1322
aVEnjoyment
p1323
aVEnjoyment
p1324
aVDisgust
p1325
aVSadness
p1326
aVEnjoyment
p1327
aVSadness
p1328
aVFear
p1329
aVEnjoyment
p1330
aVAnger
p1331
aVSadness
p1332
aVSadness
p1333
aVEnjoyment
p1334
aVEnjoyment
p1335
aVDisgust
p1336
aVEnjoyment
p1337
aVSadness
p1338
aVEnjoyment
p1339
aVSurprise
p1340
aVEnjoyment
p1341
aVEnjoyment
p1342
aVSadness
p1343
aVDisgust
p1344
aVEnjoyment
p1345
aVOther
p1346
aVEnjoyment
p1347
aVAnger
p1348
aVOther
p1349
aVSadness
p1350
aVSadness
p1351
aVEnjoyment
p1352
aVDisgust
p1353
aVEnjoyment
p1354
aVEnjoyment
p1355
aVOther
p1356
aVDisgust
p1357
aVOther
p1358
aVDisgust
p1359
aVSadness
p1360
aVFear
p1361
aVEnjoyment
p1362
aVDisgust
p1363
aVSadness
p1364
aVDisgust
p1365
aVEnjoyment
p1366
aVEnjoyment
p1367
aVSurprise
p1368
aVEnjoyment
p1369
aVOther
p1370
aVEnjoyment
p1371
aVDisgust
p1372
aVDisgust
p1373
aVEnjoyment
p1374
aVDisgust
p1375
aVEnjoyment
p1376
aVEnjoyment
p1377
aVSadness
p1378
aVFear
p1379
aVFear
p1380
aVSadness
p1381
aVFear
p1382
aVOther
p1383
aVEnjoyment
p1384
aVOther
p1385
aVAnger
p1386
aVEnjoyment
p1387
aVOther
p1388
aVOther
p1389
aVOther
p1390
aVEnjoyment
p1391
aVOther
p1392
aVEnjoyment
p1393
aVAnger
p1394
aVOther
p1395
aVDisgust
p1396
aVSadness
p1397
aVSadness
p1398
aVEnjoyment
p1399
aVDisgust
p1400
aVOther
p1401
aVEnjoyment
p1402
aVOther
p1403
aVEnjoyment
p1404
aVSurprise
p1405
aVSadness
p1406
aVEnjoyment
p1407
aVOther
p1408
aVFear
p1409
aVEnjoyment
p1410
aVEnjoyment
p1411
aVSadness
p1412
aVEnjoyment
p1413
aVOther
p1414
aVSadness
p1415
aVSadness
p1416
aVEnjoyment
p1417
aVDisgust
p1418
aVEnjoyment
p1419
aVEnjoyment
p1420
aVAnger
p1421
aVOther
p1422
aVFear
p1423
aVOther
p1424
aVFear
p1425
aVSadness
p1426
aVOther
p1427
aVOther
p1428
aVAnger
p1429
aVEnjoyment
p1430
aVDisgust
p1431
aVDisgust
p1432
aVFear
p1433
aVDisgust
p1434
aVDisgust
p1435
aVEnjoyment
p1436
aVDisgust
p1437
aVAnger
p1438
aVSadness
p1439
aVDisgust
p1440
aVOther
p1441
aVDisgust
p1442
aVDisgust
p1443
aVEnjoyment
p1444
aVOther
p1445
aVAnger
p1446
aVEnjoyment
p1447
aVOther
p1448
aVSurprise
p1449
aVSadness
p1450
aVEnjoyment
p1451
aVSadness
p1452
aVEnjoyment
p1453
aVSadness
p1454
aVAnger
p1455
aVSadness
p1456
aVDisgust
p1457
aVEnjoyment
p1458
aVDisgust
p1459
aVDisgust
p1460
aVSurprise
p1461
aVDisgust
p1462
aVEnjoyment
p1463
aVFear
p1464
aVFear
p1465
aVEnjoyment
p1466
aVOther
p1467
aVOther
p1468
aVSadness
p1469
aVOther
p1470
aVDisgust
p1471
aVEnjoyment
p1472
aVSadness
p1473
aVSadness
p1474
aVAnger
p1475
aVSadness
p1476
aVEnjoyment
p1477
aVDisgust
p1478
aVOther
p1479
aVSadness
p1480
aVOther
p1481
aVEnjoyment
p1482
aVSadness
p1483
aVOther
p1484
aVDisgust
p1485
aVSadness
p1486
aVSurprise
p1487
aVSadness
p1488
aVDisgust
p1489
aVOther
p1490
aVSadness
p1491
aVSadness
p1492
aVSadness
p1493
aVSadness
p1494
aVEnjoyment
p1495
aVOther
p1496
aVOther
p1497
aVOther
p1498
aVEnjoyment
p1499
aVSadness
p1500
aVOther
p1501
aVAnger
p1502
aVDisgust
p1503
aVDisgust
p1504
aVAnger
p1505
aVSadness
p1506
aVDisgust
p1507
aVOther
p1508
aVDisgust
p1509
aVAnger
p1510
aVEnjoyment
p1511
aVEnjoyment
p1512
aVEnjoyment
p1513
aVOther
p1514
aVFear
p1515
aVOther
p1516
aVOther
p1517
aVOther
p1518
aVDisgust
p1519
aVSadness
p1520
aVFear
p1521
aVOther
p1522
aVDisgust
p1523
aVSadness
p1524
aVSadness
p1525
aVEnjoyment
p1526
aVSadness
p1527
aVEnjoyment
p1528
aVSadness
p1529
aVAnger
p1530
aVSurprise
p1531
aVSadness
p1532
aVOther
p1533
aVOther
p1534
aVSadness
p1535
aVDisgust
p1536
aVSurprise
p1537
aVDisgust
p1538
aVEnjoyment
p1539
aVSadness
p1540
aVEnjoyment
p1541
aVSadness
p1542
aVEnjoyment
p1543
aVEnjoyment
p1544
aVEnjoyment
p1545
aVDisgust
p1546
aVSadness
p1547
aVOther
p1548
aVSadness
p1549
aVOther
p1550
aVFear
p1551
aVSadness
p1552
aVDisgust
p1553
aVSadness
p1554
aVEnjoyment
p1555
aVSurprise
p1556
aVEnjoyment
p1557
aVAnger
p1558
aVDisgust
p1559
aVSadness
p1560
aVEnjoyment
p1561
aVSadness
p1562
aVEnjoyment
p1563
aVOther
p1564
aVEnjoyment
p1565
aVEnjoyment
p1566
aVAnger
p1567
aVOther
p1568
aVOther
p1569
aVOther
p1570
aVDisgust
p1571
aVEnjoyment
p1572
aVEnjoyment
p1573
aVDisgust
p1574
aVEnjoyment
p1575
aVSadness
p1576
aVOther
p1577
aVSadness
p1578
aVAnger
p1579
aVEnjoyment
p1580
aVOther
p1581
aVOther
p1582
aVEnjoyment
p1583
aVEnjoyment
p1584
aVOther
p1585
aVDisgust
p1586
aVAnger
p1587
aVOther
p1588
aVOther
p1589
aVEnjoyment
p1590
aVEnjoyment
p1591
aVEnjoyment
p1592
aVOther
p1593
aVFear
p1594
aVEnjoyment
p1595
aVDisgust
p1596
aVEnjoyment
p1597
aVDisgust
p1598
aVDisgust
p1599
aVOther
p1600
aVSurprise
p1601
aVEnjoyment
p1602
aVOther
p1603
aVSadness
p1604
aVDisgust
p1605
aVDisgust
p1606
aVEnjoyment
p1607
aVDisgust
p1608
aVAnger
p1609
aVEnjoyment
p1610
aVDisgust
p1611
aVSurprise
p1612
aVDisgust
p1613
aVEnjoyment
p1614
aVEnjoyment
p1615
aVOther
p1616
aVEnjoyment
p1617
aVOther
p1618
aVFear
p1619
aVEnjoyment
p1620
aVEnjoyment
p1621
aVSurprise
p1622
aVOther
p1623
aVEnjoyment
p1624
aVSurprise
p1625
aVEnjoyment
p1626
aVSadness
p1627
aVEnjoyment
p1628
aVEnjoyment
p1629
aVEnjoyment
p1630
aVEnjoyment
p1631
aVEnjoyment
p1632
aVEnjoyment
p1633
aVDisgust
p1634
aVDisgust
p1635
aVEnjoyment
p1636
aVDisgust
p1637
aVSadness
p1638
aVOther
p1639
aVFear
p1640
aVSadness
p1641
aVSadness
p1642
aVEnjoyment
p1643
aVSurprise
p1644
aVEnjoyment
p1645
aVDisgust
p1646
aVSadness
p1647
aVEnjoyment
p1648
aVEnjoyment
p1649
aVSadness
p1650
aVOther
p1651
aVOther
p1652
aVEnjoyment
p1653
aVEnjoyment
p1654
aVEnjoyment
p1655
aVFear
p1656
aVOther
p1657
aVEnjoyment
p1658
aVFear
p1659
aVDisgust
p1660
aVEnjoyment
p1661
aVEnjoyment
p1662
aVDisgust
p1663
aVSurprise
p1664
aVEnjoyment
p1665
aVFear
p1666
aVEnjoyment
p1667
aVEnjoyment
p1668
aVDisgust
p1669
aVSadness
p1670
aVDisgust
p1671
aVSadness
p1672
aVEnjoyment
p1673
aVAnger
p1674
aVOther
p1675
aVDisgust
p1676
aVDisgust
p1677
aVDisgust
p1678
aVOther
p1679
aVEnjoyment
p1680
aVEnjoyment
p1681
aVEnjoyment
p1682
aVDisgust
p1683
aVOther
p1684
aVDisgust
p1685
aVEnjoyment
p1686
aVEnjoyment
p1687
aVOther
p1688
aVEnjoyment
p1689
aVAnger
p1690
aVFear
p1691
aVDisgust
p1692
aVOther
p1693
aVOther
p1694
aVDisgust
p1695
aVEnjoyment
p1696
aVOther
p1697
aVOther
p1698
aVDisgust
p1699
aVOther
p1700
aVDisgust
p1701
aVDisgust
p1702
aVEnjoyment
p1703
aVOther
p1704
aVSadness
p1705
aVEnjoyment
p1706
aVOther
p1707
aVSadness
p1708
aVEnjoyment
p1709
aVOther
p1710
aVDisgust
p1711
aVOther
p1712
aVOther
p1713
aVEnjoyment
p1714
aVOther
p1715
aVSadness
p1716
aVEnjoyment
p1717
aVOther
p1718
aVDisgust
p1719
aVSadness
p1720
aVOther
p1721
aVEnjoyment
p1722
aVDisgust
p1723
aVEnjoyment
p1724
aVAnger
p1725
aVAnger
p1726
aVSadness
p1727
aVAnger
p1728
aVOther
p1729
aVAnger
p1730
aVOther
p1731
aVDisgust
p1732
aVEnjoyment
p1733
aVSadness
p1734
aVSadness
p1735
aVEnjoyment
p1736
aVSadness
p1737
aVSadness
p1738
aVDisgust
p1739
aVEnjoyment
p1740
aVSadness
p1741
aVDisgust
p1742
aVFear
p1743
aVDisgust
p1744
aVOther
p1745
aVSadness
p1746
aVSurprise
p1747
aVEnjoyment
p1748
aVDisgust
p1749
aVAnger
p1750
aVSadness
p1751
aVAnger
p1752
aVOther
p1753
aVFear
p1754
aVAnger
p1755
aVEnjoyment
p1756
aVOther
p1757
aVDisgust
p1758
aVDisgust
p1759
aVEnjoyment
p1760
aVDisgust
p1761
aVEnjoyment
p1762
aVEnjoyment
p1763
aVSurprise
p1764
aVEnjoyment
p1765
aVOther
p1766
aVSadness
p1767
aVSadness
p1768
aVEnjoyment
p1769
aVDisgust
p1770
aVOther
p1771
aVOther
p1772
aVSurprise
p1773
aVDisgust
p1774
aVOther
p1775
aVDisgust
p1776
aVOther
p1777
aVEnjoyment
p1778
aVEnjoyment
p1779
aVSadness
p1780
aVEnjoyment
p1781
aVEnjoyment
p1782
aVOther
p1783
aVEnjoyment
p1784
aVEnjoyment
p1785
aVEnjoyment
p1786
aVDisgust
p1787
aVDisgust
p1788
aVFear
p1789
aVDisgust
p1790
aVFear
p1791
aVEnjoyment
p1792
aVEnjoyment
p1793
aVEnjoyment
p1794
aVOther
p1795
aVEnjoyment
p1796
aVOther
p1797
aVEnjoyment
p1798
aVSadness
p1799
aVOther
p1800
aVEnjoyment
p1801
aVEnjoyment
p1802
aVOther
p1803
aVOther
p1804
aVOther
p1805
aVDisgust
p1806
aVFear
p1807
aVAnger
p1808
aVEnjoyment
p1809
aVDisgust
p1810
aVSadness
p1811
aVEnjoyment
p1812
aVSadness
p1813
aVSadness
p1814
aVFear
p1815
aVAnger
p1816
aVSurprise
p1817
aVEnjoyment
p1818
aVSadness
p1819
aVSadness
p1820
aVFear
p1821
aVOther
p1822
aVSadness
p1823
aVAnger
p1824
aVSadness
p1825
aVOther
p1826
aVEnjoyment
p1827
aVSadness
p1828
aVDisgust
p1829
aVOther
p1830
aVFear
p1831
aVSadness
p1832
aVDisgust
p1833
aVDisgust
p1834
aVEnjoyment
p1835
aVFear
p1836
aVAnger
p1837
aVDisgust
p1838
aVEnjoyment
p1839
aVEnjoyment
p1840
aVDisgust
p1841
aVEnjoyment
p1842
aVEnjoyment
p1843
aVDisgust
p1844
aVDisgust
p1845
aVEnjoyment
p1846
aVAnger
p1847
aVSurprise
p1848
aVSurprise
p1849
aVEnjoyment
p1850
aVDisgust
p1851
aVOther
p1852
aVOther
p1853
aVOther
p1854
aVEnjoyment
p1855
aVOther
p1856
aVAnger
p1857
aVEnjoyment
p1858
aVEnjoyment
p1859
aVSadness
p1860
aVDisgust
p1861
aVEnjoyment
p1862
aVSurprise
p1863
aVDisgust
p1864
aVSadness
p1865
aVDisgust
p1866
aVOther
p1867
aVOther
p1868
aVSadness
p1869
aVEnjoyment
p1870
aVOther
p1871
aVAnger
p1872
aVEnjoyment
p1873
aVEnjoyment
p1874
aVOther
p1875
aVDisgust
p1876
aVDisgust
p1877
aVSadness
p1878
aVOther
p1879
aVOther
p1880
aVEnjoyment
p1881
aVEnjoyment
p1882
aVDisgust
p1883
aVDisgust
p1884
aVEnjoyment
p1885
aVSurprise
p1886
aVSadness
p1887
aVSadness
p1888
aVEnjoyment
p1889
aVFear
p1890
aVOther
p1891
aVDisgust
p1892
aVEnjoyment
p1893
aVDisgust
p1894
aVOther
p1895
aVAnger
p1896
aVEnjoyment
p1897
aVEnjoyment
p1898
aVEnjoyment
p1899
aVDisgust
p1900
aVEnjoyment
p1901
aVDisgust
p1902
aVSurprise
p1903
aVFear
p1904
aVSadness
p1905
aVOther
p1906
aVEnjoyment
p1907
aVOther
p1908
aVFear
p1909
aVSadness
p1910
aVEnjoyment
p1911
aVDisgust
p1912
aVDisgust
p1913
aVEnjoyment
p1914
aVAnger
p1915
aVEnjoyment
p1916
aVOther
p1917
aVDisgust
p1918
aVSadness
p1919
aVOther
p1920
aVSadness
p1921
aVSadness
p1922
aVDisgust
p1923
aVDisgust
p1924
aVOther
p1925
aVEnjoyment
p1926
aVDisgust
p1927
aVEnjoyment
p1928
aVDisgust
p1929
aVDisgust
p1930
aVEnjoyment
p1931
aVDisgust
p1932
aVOther
p1933
aVOther
p1934
aVSadness
p1935
aVFear
p1936
aVEnjoyment
p1937
aVFear
p1938
aVDisgust
p1939
aVEnjoyment
p1940
aVSadness
p1941
aVSadness
p1942
aVDisgust
p1943
aVFear
p1944
aVOther
p1945
aVDisgust
p1946
aVSadness
p1947
aVOther
p1948
aVFear
p1949
aVOther
p1950
aVOther
p1951
aVDisgust
p1952
aVSurprise
p1953
aVEnjoyment
p1954
aVOther
p1955
aVDisgust
p1956
aVOther
p1957
aVAnger
p1958
aVDisgust
p1959
aVEnjoyment
p1960
aVEnjoyment
p1961
aVSadness
p1962
aVOther
p1963
aVEnjoyment
p1964
aVEnjoyment
p1965
aVSadness
p1966
aVDisgust
p1967
aVDisgust
p1968
aVSadness
p1969
aVEnjoyment
p1970
aVOther
p1971
aVSadness
p1972
aVDisgust
p1973
aVDisgust
p1974
aVEnjoyment
p1975
aVEnjoyment
p1976
aVEnjoyment
p1977
aVSadness
p1978
aVEnjoyment
p1979
aVDisgust
p1980
aVDisgust
p1981
aVSadness
p1982
aVOther
p1983
aVOther
p1984
aVDisgust
p1985
aVOther
p1986
aVDisgust
p1987
aVEnjoyment
p1988
aVDisgust
p1989
aVDisgust
p1990
aVEnjoyment
p1991
aVOther
p1992
aVEnjoyment
p1993
aVOther
p1994
aVSadness
p1995
aVDisgust
p1996
aVEnjoyment
p1997
aVEnjoyment
p1998
aVDisgust
p1999
aVEnjoyment
p2000
aVAnger
p2001
aVOther
p2002
aVOther
p2003
aVFear
p2004
aVDisgust
p2005
aVOther
p2006
aVSadness
p2007
aVFear
p2008
aVEnjoyment
p2009
aVDisgust
p2010
aVOther
p2011
aVDisgust
p2012
aVEnjoyment
p2013
aVSadness
p2014
aVEnjoyment
p2015
aVEnjoyment
p2016
aVFear
p2017
aVDisgust
p2018
aVFear
p2019
aVOther
p2020
aVEnjoyment
p2021
aVOther
p2022
aVSadness
p2023
aVEnjoyment
p2024
aVDisgust
p2025
aVEnjoyment
p2026
aVEnjoyment
p2027
aVEnjoyment
p2028
aVOther
p2029
aVOther
p2030
aVEnjoyment
p2031
aVSurprise
p2032
aVEnjoyment
p2033
aVDisgust
p2034
aVSurprise
p2035
aVDisgust
p2036
aVOther
p2037
aVOther
p2038
aVEnjoyment
p2039
aVOther
p2040
aVDisgust
p2041
aVEnjoyment
p2042
aVEnjoyment
p2043
aVOther
p2044
aVFear
p2045
aVAnger
p2046
aVOther
p2047
aVSadness
p2048
aVSadness
p2049
aVDisgust
p2050
aVDisgust
p2051
aVDisgust
p2052
aVDisgust
p2053
aVEnjoyment
p2054
aVEnjoyment
p2055
aVDisgust
p2056
aVOther
p2057
aVOther
p2058
aVFear
p2059
aVEnjoyment
p2060
aVFear
p2061
aVOther
p2062
aVAnger
p2063
aVDisgust
p2064
aVEnjoyment
p2065
aVDisgust
p2066
aVSadness
p2067
aVSadness
p2068
aVSadness
p2069
aVOther
p2070
aVEnjoyment
p2071
aVDisgust
p2072
aVDisgust
p2073
aVFear
p2074
aVEnjoyment
p2075
aVAnger
p2076
aVEnjoyment
p2077
aVSadness
p2078
aVEnjoyment
p2079
aVOther
p2080
aVOther
p2081
aVDisgust
p2082
aVSurprise
p2083
aVOther
p2084
aVSurprise
p2085
aVSadness
p2086
aVFear
p2087
aVFear
p2088
aVEnjoyment
p2089
aVFear
p2090
aVEnjoyment
p2091
aVOther
p2092
aVDisgust
p2093
aVFear
p2094
aVEnjoyment
p2095
aVEnjoyment
p2096
aVOther
p2097
aVDisgust
p2098
aVSadness
p2099
aVOther
p2100
aVEnjoyment
p2101
aVOther
p2102
aVDisgust
p2103
aVDisgust
p2104
aVEnjoyment
p2105
aVSurprise
p2106
aVDisgust
p2107
aVOther
p2108
aVOther
p2109
aVDisgust
p2110
aVFear
p2111
aVOther
p2112
aVSurprise
p2113
aVSadness
p2114
aVEnjoyment
p2115
aVEnjoyment
p2116
aVEnjoyment
p2117
aVOther
p2118
aVEnjoyment
p2119
aVDisgust
p2120
aVOther
p2121
aVEnjoyment
p2122
aVOther
p2123
aVSadness
p2124
aVEnjoyment
p2125
aVDisgust
p2126
aVAnger
p2127
aVEnjoyment
p2128
aVSadness
p2129
aVAnger
p2130
aVEnjoyment
p2131
aVFear
p2132
aVEnjoyment
p2133
aVEnjoyment
p2134
aVSadness
p2135
aVEnjoyment
p2136
aVEnjoyment
p2137
aVDisgust
p2138
aVOther
p2139
aVEnjoyment
p2140
aVEnjoyment
p2141
aVOther
p2142
aVOther
p2143
aVSurprise
p2144
aVEnjoyment
p2145
aVOther
p2146
aVOther
p2147
aVDisgust
p2148
aVEnjoyment
p2149
aVFear
p2150
aVDisgust
p2151
aVSadness
p2152
aVOther
p2153
aVSadness
p2154
aVEnjoyment
p2155
aVOther
p2156
aVDisgust
p2157
aVEnjoyment
p2158
aVEnjoyment
p2159
aVEnjoyment
p2160
aVEnjoyment
p2161
aVDisgust
p2162
aVEnjoyment
p2163
aVSadness
p2164
aVDisgust
p2165
aVDisgust
p2166
aVSadness
p2167
aVOther
p2168
aVSadness
p2169
aVFear
p2170
aVEnjoyment
p2171
aVAnger
p2172
aVSadness
p2173
aVAnger
p2174
aVEnjoyment
p2175
aVEnjoyment
p2176
aVDisgust
p2177
aVDisgust
p2178
aVSadness
p2179
aVSurprise
p2180
aVSadness
p2181
aVEnjoyment
p2182
aVSurprise
p2183
aVEnjoyment
p2184
aVOther
p2185
aVDisgust
p2186
aVEnjoyment
p2187
aVFear
p2188
aVOther
p2189
aVDisgust
p2190
aVOther
p2191
aVOther
p2192
aVEnjoyment
p2193
aVEnjoyment
p2194
aVEnjoyment
p2195
aVOther
p2196
aVEnjoyment
p2197
aVAnger
p2198
aVDisgust
p2199
aVDisgust
p2200
aVOther
p2201
aVSadness
p2202
aVOther
p2203
aVDisgust
p2204
aVOther
p2205
aVEnjoyment
p2206
aVEnjoyment
p2207
aVEnjoyment
p2208
aVDisgust
p2209
aVSadness
p2210
aVEnjoyment
p2211
aVOther
p2212
aVDisgust
p2213
aVEnjoyment
p2214
aVEnjoyment
p2215
aVOther
p2216
aVOther
p2217
aVOther
p2218
aVFear
p2219
aVEnjoyment
p2220
aVEnjoyment
p2221
aVDisgust
p2222
aVEnjoyment
p2223
aVSadness
p2224
aVEnjoyment
p2225
aVEnjoyment
p2226
aVSadness
p2227
aVSadness
p2228
aVEnjoyment
p2229
aVEnjoyment
p2230
aVOther
p2231
aVOther
p2232
aVFear
p2233
aVDisgust
p2234
aVEnjoyment
p2235
aVOther
p2236
aVSadness
p2237
aVDisgust
p2238
aVAnger
p2239
aVEnjoyment
p2240
aVDisgust
p2241
aVEnjoyment
p2242
aVSadness
p2243
aVOther
p2244
aVSurprise
p2245
aVAnger
p2246
aVSadness
p2247
aVEnjoyment
p2248
aVSadness
p2249
aVEnjoyment
p2250
aVDisgust
p2251
aVEnjoyment
p2252
aVSadness
p2253
aVEnjoyment
p2254
aVOther
p2255
aVEnjoyment
p2256
aVOther
p2257
aVDisgust
p2258
aVSadness
p2259
aVOther
p2260
aVEnjoyment
p2261
aVOther
p2262
aVEnjoyment
p2263
aVEnjoyment
p2264
aVFear
p2265
aVSadness
p2266
aVOther
p2267
aVOther
p2268
aVSadness
p2269
aVOther
p2270
aVFear
p2271
aVAnger
p2272
aVSadness
p2273
aVSurprise
p2274
aVSadness
p2275
aVEnjoyment
p2276
aVSurprise
p2277
aVEnjoyment
p2278
aVDisgust
p2279
aVEnjoyment
p2280
aVOther
p2281
aVAnger
p2282
aVEnjoyment
p2283
aVSadness
p2284
aVEnjoyment
p2285
aVDisgust
p2286
aVOther
p2287
aVEnjoyment
p2288
aVAnger
p2289
aVOther
p2290
aVSadness
p2291
aVSadness
p2292
aVSadness
p2293
aVDisgust
p2294
aVEnjoyment
p2295
aVFear
p2296
aVDisgust
p2297
aVOther
p2298
aVOther
p2299
aVOther
p2300
aVEnjoyment
p2301
aVEnjoyment
p2302
aVOther
p2303
aVDisgust
p2304
aVEnjoyment
p2305
aVDisgust
p2306
aVDisgust
p2307
aVDisgust
p2308
aVDisgust
p2309
aVSadness
p2310
aVOther
p2311
aVDisgust
p2312
aVOther
p2313
aVSadness
p2314
aVDisgust
p2315
aVEnjoyment
p2316
aVDisgust
p2317
aVDisgust
p2318
aVOther
p2319
aVSurprise
p2320
aVSadness
p2321
aVDisgust
p2322
aVDisgust
p2323
aVDisgust
p2324
aVSadness
p2325
aVAnger
p2326
aVDisgust
p2327
aVDisgust
p2328
aVEnjoyment
p2329
aVEnjoyment
p2330
aVSadness
p2331
aVEnjoyment
p2332
aVEnjoyment
p2333
aVDisgust
p2334
aVOther
p2335
aVEnjoyment
p2336
aVOther
p2337
aVOther
p2338
aVOther
p2339
aVEnjoyment
p2340
aVOther
p2341
aVEnjoyment
p2342
aVDisgust
p2343
aVAnger
p2344
aVAnger
p2345
aVSadness
p2346
aVDisgust
p2347
aVEnjoyment
p2348
aVEnjoyment
p2349
aVSadness
p2350
aVEnjoyment
p2351
aVDisgust
p2352
aVSadness
p2353
aVOther
p2354
aVOther
p2355
aVEnjoyment
p2356
aVSadness
p2357
aVFear
p2358
aVOther
p2359
aVAnger
p2360
aVEnjoyment
p2361
aVDisgust
p2362
aVSurprise
p2363
aVAnger
p2364
aVDisgust
p2365
aVOther
p2366
aVSurprise
p2367
aVEnjoyment
p2368
aVDisgust
p2369
aVEnjoyment
p2370
aVEnjoyment
p2371
aVDisgust
p2372
aVEnjoyment
p2373
aVAnger
p2374
aVOther
p2375
aVAnger
p2376
aVSadness
p2377
aVEnjoyment
p2378
aVOther
p2379
aVDisgust
p2380
aVDisgust
p2381
aVSadness
p2382
aVEnjoyment
p2383
aVEnjoyment
p2384
aVEnjoyment
p2385
aVOther
p2386
aVEnjoyment
p2387
aVEnjoyment
p2388
aVEnjoyment
p2389
aVAnger
p2390
aVDisgust
p2391
aVEnjoyment
p2392
aVDisgust
p2393
aVSurprise
p2394
aVDisgust
p2395
aVOther
p2396
aVOther
p2397
aVDisgust
p2398
aVDisgust
p2399
aVDisgust
p2400
aVDisgust
p2401
aVDisgust
p2402
aVDisgust
p2403
aVEnjoyment
p2404
aVEnjoyment
p2405
aVSadness
p2406
aVFear
p2407
aVSadness
p2408
aVSadness
p2409
aVEnjoyment
p2410
aVSurprise
p2411
aVDisgust
p2412
aVSadness
p2413
aVDisgust
p2414
aVFear
p2415
aVEnjoyment
p2416
aVDisgust
p2417
aVDisgust
p2418
aVOther
p2419
aVDisgust
p2420
aVOther
p2421
aVOther
p2422
aVOther
p2423
aVEnjoyment
p2424
aVEnjoyment
p2425
aVDisgust
p2426
aVDisgust
p2427
aVEnjoyment
p2428
aVOther
p2429
aVEnjoyment
p2430
aVEnjoyment
p2431
aVFear
p2432
aVEnjoyment
p2433
aVEnjoyment
p2434
aVEnjoyment
p2435
aVOther
p2436
aVSadness
p2437
aVEnjoyment
p2438
aVDisgust
p2439
aVSurprise
p2440
aVOther
p2441
aVSadness
p2442
aVFear
p2443
aVEnjoyment
p2444
aVDisgust
p2445
aVEnjoyment
p2446
aVEnjoyment
p2447
aVFear
p2448
aVEnjoyment
p2449
aVEnjoyment
p2450
aVOther
p2451
aVDisgust
p2452
aVSadness
p2453
aVSurprise
p2454
aVDisgust
p2455
aVDisgust
p2456
aVAnger
p2457
aVDisgust
p2458
aVEnjoyment
p2459
aVEnjoyment
p2460
aVDisgust
p2461
aVSadness
p2462
aVEnjoyment
p2463
aVOther
p2464
aVOther
p2465
aVAnger
p2466
aVDisgust
p2467
aVDisgust
p2468
aVOther
p2469
aVOther
p2470
aVOther
p2471
aVDisgust
p2472
aVEnjoyment
p2473
aVSadness
p2474
aVAnger
p2475
aVSurprise
p2476
aVEnjoyment
p2477
aVSadness
p2478
aVEnjoyment
p2479
aVSadness
p2480
aVEnjoyment
p2481
aVOther
p2482
aVAnger
p2483
aVEnjoyment
p2484
aVOther
p2485
aVEnjoyment
p2486
aVDisgust
p2487
aVDisgust
p2488
aVSadness
p2489
aVAnger
p2490
aVOther
p2491
aVSadness
p2492
aVOther
p2493
aVOther
p2494
aVEnjoyment
p2495
aVSurprise
p2496
aVAnger
p2497
aVFear
p2498
aVFear
p2499
aVEnjoyment
p2500
aVDisgust
p2501
aVDisgust
p2502
aVOther
p2503
aVDisgust
p2504
aVAnger
p2505
aVEnjoyment
p2506
aVDisgust
p2507
aVEnjoyment
p2508
aVEnjoyment
p2509
aVEnjoyment
p2510
aVOther
p2511
aVEnjoyment
p2512
aVEnjoyment
p2513
aVDisgust
p2514
aVEnjoyment
p2515
aVAnger
p2516
aVSurprise
p2517
aVEnjoyment
p2518
aVOther
p2519
aVSurprise
p2520
aVDisgust
p2521
aVFear
p2522
aVFear
p2523
aVDisgust
p2524
aVAnger
p2525
aVOther
p2526
aVEnjoyment
p2527
aVOther
p2528
aVSadness
p2529
aVEnjoyment
p2530
aVEnjoyment
p2531
aVSadness
p2532
aVDisgust
p2533
aVOther
p2534
aVEnjoyment
p2535
aVEnjoyment
p2536
aVEnjoyment
p2537
aVEnjoyment
p2538
aVAnger
p2539
aVEnjoyment
p2540
aVAnger
p2541
aVFear
p2542
aVEnjoyment
p2543
aVFear
p2544
aVSadness
p2545
aVSurprise
p2546
aVEnjoyment
p2547
aVOther
p2548
aVSurprise
p2549
aVSurprise
p2550
aVDisgust
p2551
aVEnjoyment
p2552
aVEnjoyment
p2553
aVDisgust
p2554
aVEnjoyment
p2555
aVEnjoyment
p2556
aVSadness
p2557
aVEnjoyment
p2558
aVEnjoyment
p2559
aVDisgust
p2560
aVEnjoyment
p2561
aVEnjoyment
p2562
aVEnjoyment
p2563
aVEnjoyment
p2564
aVDisgust
p2565
aVEnjoyment
p2566
aVEnjoyment
p2567
aVFear
p2568
aVOther
p2569
aVOther
p2570
aVDisgust
p2571
aVEnjoyment
p2572
aVDisgust
p2573
aVDisgust
p2574
aVOther
p2575
aVFear
p2576
aVOther
p2577
aVAnger
p2578
aVSadness
p2579
aVEnjoyment
p2580
aVDisgust
p2581
aVAnger
p2582
aVEnjoyment
p2583
aVSadness
p2584
aVSadness
p2585
aVSurprise
p2586
aVSadness
p2587
aVEnjoyment
p2588
aVFear
p2589
aVEnjoyment
p2590
aVSurprise
p2591
aVOther
p2592
aVDisgust
p2593
aVSadness
p2594
aVOther
p2595
aVSadness
p2596
aVDisgust
p2597
aVEnjoyment
p2598
aVAnger
p2599
aVDisgust
p2600
aVDisgust
p2601
aVEnjoyment
p2602
aVOther
p2603
aVDisgust
p2604
aVSadness
p2605
aVAnger
p2606
aVEnjoyment
p2607
aVEnjoyment
p2608
aVOther
p2609
aVOther
p2610
aVDisgust
p2611
aVOther
p2612
aVFear
p2613
aVDisgust
p2614
aVSadness
p2615
aVEnjoyment
p2616
aVFear
p2617
aVEnjoyment
p2618
aVSadness
p2619
aVSadness
p2620
aVOther
p2621
aVDisgust
p2622
aVEnjoyment
p2623
aVEnjoyment
p2624
aVDisgust
p2625
aVOther
p2626
aVOther
p2627
aVOther
p2628
aVOther
p2629
aVSadness
p2630
aVOther
p2631
aVFear
p2632
aVFear
p2633
aVDisgust
p2634
aVFear
p2635
aVEnjoyment
p2636
aVOther
p2637
aVSadness
p2638
aVDisgust
p2639
aVDisgust
p2640
aVSadness
p2641
aVEnjoyment
p2642
aVDisgust
p2643
aVAnger
p2644
aVAnger
p2645
aVSadness
p2646
aVSadness
p2647
aVSadness
p2648
aVDisgust
p2649
aVEnjoyment
p2650
aVDisgust
p2651
aVFear
p2652
aVEnjoyment
p2653
aVEnjoyment
p2654
aVEnjoyment
p2655
aVOther
p2656
aVEnjoyment
p2657
aVOther
p2658
aVSadness
p2659
aVSadness
p2660
aVDisgust
p2661
aVOther
p2662
aVEnjoyment
p2663
aVDisgust
p2664
aVDisgust
p2665
aVOther
p2666
aVOther
p2667
aVDisgust
p2668
aVEnjoyment
p2669
aVDisgust
p2670
aVEnjoyment
p2671
aVEnjoyment
p2672
aVDisgust
p2673
aVSadness
p2674
aVOther
p2675
aVOther
p2676
aVEnjoyment
p2677
aVOther
p2678
aVEnjoyment
p2679
aVEnjoyment
p2680
aVAnger
p2681
aVDisgust
p2682
aVEnjoyment
p2683
aVDisgust
p2684
aVSadness
p2685
aVDisgust
p2686
aVSadness
p2687
aVEnjoyment
p2688
aVEnjoyment
p2689
aVSadness
p2690
aVEnjoyment
p2691
aVDisgust
p2692
aVDisgust
p2693
aVAnger
p2694
aVEnjoyment
p2695
aVSadness
p2696
aVDisgust
p2697
aVDisgust
p2698
aVSadness
p2699
aVDisgust
p2700
aVSadness
p2701
aVOther
p2702
aVOther
p2703
aVDisgust
p2704
aVDisgust
p2705
aVEnjoyment
p2706
aVDisgust
p2707
aVDisgust
p2708
aVEnjoyment
p2709
aVSadness
p2710
aVOther
p2711
aVAnger
p2712
aVEnjoyment
p2713
aVOther
p2714
aVDisgust
p2715
aVDisgust
p2716
aVEnjoyment
p2717
aVDisgust
p2718
aVSadness
p2719
aVOther
p2720
aVSadness
p2721
aVFear
p2722
aVDisgust
p2723
aVFear
p2724
aVFear
p2725
aVEnjoyment
p2726
aVEnjoyment
p2727
aVEnjoyment
p2728
aVDisgust
p2729
aVSurprise
p2730
aVOther
p2731
aVEnjoyment
p2732
aVAnger
p2733
aVAnger
p2734
aVSadness
p2735
aVOther
p2736
aVSadness
p2737
aVDisgust
p2738
aVSadness
p2739
aVEnjoyment
p2740
aVEnjoyment
p2741
aVEnjoyment
p2742
aVFear
p2743
aVSadness
p2744
aVSadness
p2745
aVOther
p2746
aVOther
p2747
aVDisgust
p2748
aVEnjoyment
p2749
aVOther
p2750
aVOther
p2751
aVDisgust
p2752
aVDisgust
p2753
aVEnjoyment
p2754
aVSadness
p2755
aVSadness
p2756
aVDisgust
p2757
aVEnjoyment
p2758
aVOther
p2759
aVFear
p2760
aVEnjoyment
p2761
aVAnger
p2762
aVOther
p2763
aVEnjoyment
p2764
aVEnjoyment
p2765
aVFear
p2766
aVSadness
p2767
aVSurprise
p2768
aVOther
p2769
aVSadness
p2770
aVDisgust
p2771
aVEnjoyment
p2772
aVOther
p2773
aVEnjoyment
p2774
aVOther
p2775
aVSadness
p2776
aVEnjoyment
p2777
aVDisgust
p2778
aVEnjoyment
p2779
aVOther
p2780
aVDisgust
p2781
aVOther
p2782
aVEnjoyment
p2783
aVAnger
p2784
aVEnjoyment
p2785
aVSadness
p2786
aVEnjoyment
p2787
aVFear
p2788
aVDisgust
p2789
aVOther
p2790
aVDisgust
p2791
aVDisgust
p2792
aVSurprise
p2793
aVOther
p2794
aVEnjoyment
p2795
aVDisgust
p2796
aVOther
p2797
aVOther
p2798
aVDisgust
p2799
aVSadness
p2800
aVAnger
p2801
aVOther
p2802
aVDisgust
p2803
aVOther
p2804
aVOther
p2805
aVEnjoyment
p2806
aVDisgust
p2807
aVEnjoyment
p2808
aVEnjoyment
p2809
aVDisgust
p2810
aVEnjoyment
p2811
aVOther
p2812
aVSadness
p2813
aVSurprise
p2814
aVSadness
p2815
aVEnjoyment
p2816
aVAnger
p2817
aVSurprise
p2818
aVSadness
p2819
aVEnjoyment
p2820
aVDisgust
p2821
aVAnger
p2822
aVSurprise
p2823
aVOther
p2824
aVSurprise
p2825
aVOther
p2826
aVSurprise
p2827
aVEnjoyment
p2828
aVOther
p2829
aVOther
p2830
aVOther
p2831
aVEnjoyment
p2832
aVSadness
p2833
aVEnjoyment
p2834
aVDisgust
p2835
aVDisgust
p2836
aVSadness
p2837
aVOther
p2838
aVOther
p2839
aVAnger
p2840
aVSadness
p2841
aVAnger
p2842
aVOther
p2843
aVEnjoyment
p2844
aVSadness
p2845
aVDisgust
p2846
aVEnjoyment
p2847
aVSadness
p2848
aVEnjoyment
p2849
aVEnjoyment
p2850
aVEnjoyment
p2851
aVEnjoyment
p2852
aVEnjoyment
p2853
aVOther
p2854
aVSurprise
p2855
aVEnjoyment
p2856
aVAnger
p2857
aVDisgust
p2858
aVOther
p2859
aVOther
p2860
aVDisgust
p2861
aVOther
p2862
aVOther
p2863
aVEnjoyment
p2864
aVOther
p2865
aVDisgust
p2866
aVDisgust
p2867
aVAnger
p2868
aVEnjoyment
p2869
aVDisgust
p2870
aVDisgust
p2871
aVSadness
p2872
aVDisgust
p2873
aVSadness
p2874
aVEnjoyment
p2875
aVOther
p2876
aVSadness
p2877
aVSadness
p2878
aVFear
p2879
aVEnjoyment
p2880
aVDisgust
p2881
aVSurprise
p2882
aVEnjoyment
p2883
aVSadness
p2884
aVOther
p2885
aVOther
p2886
aVSadness
p2887
aVAnger
p2888
aVDisgust
p2889
aVSadness
p2890
aVOther
p2891
aVEnjoyment
p2892
aVSadness
p2893
aVAnger
p2894
aVOther
p2895
aVEnjoyment
p2896
aVAnger
p2897
aVSadness
p2898
aVFear
p2899
aVAnger
p2900
aVFear
p2901
aVSadness
p2902
aVEnjoyment
p2903
aVEnjoyment
p2904
aVEnjoyment
p2905
aVEnjoyment
p2906
aVEnjoyment
p2907
aVEnjoyment
p2908
aVEnjoyment
p2909
aVEnjoyment
p2910
aVOther
p2911
aVSadness
p2912
aVEnjoyment
p2913
aVAnger
p2914
aVEnjoyment
p2915
aVSadness
p2916
aVOther
p2917
aVSadness
p2918
aVOther
p2919
aVEnjoyment
p2920
aVEnjoyment
p2921
aVEnjoyment
p2922
aVAnger
p2923
aVAnger
p2924
aVEnjoyment
p2925
aVSadness
p2926
aVSadness
p2927
aVAnger
p2928
aVDisgust
p2929
aVOther
p2930
aVSadness
p2931
aVOther
p2932
aVEnjoyment
p2933
aVEnjoyment
p2934
aVOther
p2935
aVSurprise
p2936
aVSadness
p2937
aVEnjoyment
p2938
aVDisgust
p2939
aVFear
p2940
aVAnger
p2941
aVEnjoyment
p2942
aVOther
p2943
aVEnjoyment
p2944
aVAnger
p2945
aVFear
p2946
aVSadness
p2947
aVEnjoyment
p2948
aVOther
p2949
aVFear
p2950
aVEnjoyment
p2951
aVDisgust
p2952
aVSadness
p2953
aVEnjoyment
p2954
aVOther
p2955
aVDisgust
p2956
aVDisgust
p2957
aVEnjoyment
p2958
aVSurprise
p2959
aVFear
p2960
aVEnjoyment
p2961
aVSadness
p2962
aVDisgust
p2963
aVDisgust
p2964
aVEnjoyment
p2965
aVOther
p2966
aVEnjoyment
p2967
aVSadness
p2968
aVSadness
p2969
aVEnjoyment
p2970
aVEnjoyment
p2971
aVSurprise
p2972
aVEnjoyment
p2973
aVEnjoyment
p2974
aVFear
p2975
aVDisgust
p2976
aVEnjoyment
p2977
aVSurprise
p2978
aVOther
p2979
aVEnjoyment
p2980
aVOther
p2981
aVDisgust
p2982
aVDisgust
p2983
aVEnjoyment
p2984
aVSadness
p2985
aVEnjoyment
p2986
aVAnger
p2987
aVDisgust
p2988
aVSurprise
p2989
aVSadness
p2990
aVOther
p2991
aVSadness
p2992
aVEnjoyment
p2993
aVEnjoyment
p2994
aVOther
p2995
aVSadness
p2996
aVEnjoyment
p2997
aVDisgust
p2998
aVEnjoyment
p2999
aVDisgust
p3000
aVSurprise
p3001
aVEnjoyment
p3002
aVOther
p3003
aVDisgust
p3004
aVSadness
p3005
aVSadness
p3006
aVEnjoyment
p3007
aVDisgust
p3008
aVSadness
p3009
aVEnjoyment
p3010
aVAnger
p3011
aVDisgust
p3012
aVAnger
p3013
aVDisgust
p3014
aVEnjoyment
p3015
aVOther
p3016
aVSadness
p3017
aVEnjoyment
p3018
aVDisgust
p3019
aVDisgust
p3020
aVFear
p3021
aVSurprise
p3022
aVSadness
p3023
aVSadness
p3024
aVDisgust
p3025
aVOther
p3026
aVEnjoyment
p3027
aVEnjoyment
p3028
aVDisgust
p3029
aVAnger
p3030
aVOther
p3031
aVEnjoyment
p3032
aVOther
p3033
aVSurprise
p3034
aVEnjoyment
p3035
aVEnjoyment
p3036
aVEnjoyment
p3037
aVEnjoyment
p3038
aVSadness
p3039
aVEnjoyment
p3040
aVEnjoyment
p3041
aVOther
p3042
aVSadness
p3043
aVOther
p3044
aVEnjoyment
p3045
aVSadness
p3046
aVEnjoyment
p3047
aVSadness
p3048
aVOther
p3049
aVOther
p3050
aVEnjoyment
p3051
aVDisgust
p3052
aVEnjoyment
p3053
aVSurprise
p3054
aVSadness
p3055
aVAnger
p3056
aVOther
p3057
aVSadness
p3058
aVSadness
p3059
aVDisgust
p3060
aVDisgust
p3061
aVAnger
p3062
aVDisgust
p3063
aVSadness
p3064
aVEnjoyment
p3065
aVOther
p3066
aVEnjoyment
p3067
aVDisgust
p3068
aVEnjoyment
p3069
aVSurprise
p3070
aVAnger
p3071
aVOther
p3072
aVSadness
p3073
aVOther
p3074
aVEnjoyment
p3075
aVEnjoyment
p3076
aVSadness
p3077
aVDisgust
p3078
aVAnger
p3079
aVEnjoyment
p3080
aVDisgust
p3081
aVOther
p3082
aVEnjoyment
p3083
aVOther
p3084
aVDisgust
p3085
aVSadness
p3086
aVOther
p3087
aVEnjoyment
p3088
aVFear
p3089
aVFear
p3090
aVOther
p3091
aVSadness
p3092
aVSadness
p3093
aVDisgust
p3094
aVEnjoyment
p3095
aVFear
p3096
aVOther
p3097
aVSadness
p3098
aVOther
p3099
aVEnjoyment
p3100
aVDisgust
p3101
aVDisgust
p3102
aVSadness
p3103
aVEnjoyment
p3104
aVDisgust
p3105
aVOther
p3106
aVEnjoyment
p3107
aVSadness
p3108
aVAnger
p3109
aVSadness
p3110
aVSurprise
p3111
aVDisgust
p3112
aVEnjoyment
p3113
aVDisgust
p3114
aVSurprise
p3115
aVSadness
p3116
aVDisgust
p3117
aVOther
p3118
aVDisgust
p3119
aVSurprise
p3120
aVOther
p3121
aVSadness
p3122
aVEnjoyment
p3123
aVSadness
p3124
aVOther
p3125
aVEnjoyment
p3126
aVDisgust
p3127
aVFear
p3128
aVSadness
p3129
aVSadness
p3130
aVAnger
p3131
aVSadness
p3132
aVEnjoyment
p3133
aVEnjoyment
p3134
aVFear
p3135
aVDisgust
p3136
aVEnjoyment
p3137
aVOther
p3138
aVSurprise
p3139
aVOther
p3140
aVSadness
p3141
aVOther
p3142
aVSadness
p3143
aVEnjoyment
p3144
aVEnjoyment
p3145
aVEnjoyment
p3146
aVDisgust
p3147
aVSadness
p3148
aVSadness
p3149
aVSadness
p3150
aVEnjoyment
p3151
aVOther
p3152
aVFear
p3153
aVFear
p3154
aVSadness
p3155
aVEnjoyment
p3156
aVEnjoyment
p3157
aVDisgust
p3158
aVAnger
p3159
aVEnjoyment
p3160
aVOther
p3161
aVSadness
p3162
aVAnger
p3163
aVDisgust
p3164
aVOther
p3165
aVEnjoyment
p3166
aVOther
p3167
aVOther
p3168
aVEnjoyment
p3169
aVDisgust
p3170
aVSadness
p3171
aVEnjoyment
p3172
aVEnjoyment
p3173
aVSadness
p3174
aVAnger
p3175
aVSadness
p3176
aVSadness
p3177
aVEnjoyment
p3178
aVSadness
p3179
aVOther
p3180
aVEnjoyment
p3181
aVEnjoyment
p3182
aVDisgust
p3183
aVEnjoyment
p3184
aVSadness
p3185
aVAnger
p3186
aVEnjoyment
p3187
aVAnger
p3188
aVFear
p3189
aVOther
p3190
aVOther
p3191
aVDisgust
p3192
aVDisgust
p3193
aVDisgust
p3194
aVSadness
p3195
aVSurprise
p3196
aVSadness
p3197
aVDisgust
p3198
aVSadness
p3199
aVEnjoyment
p3200
aVEnjoyment
p3201
aVOther
p3202
aVOther
p3203
aVDisgust
p3204
aVEnjoyment
p3205
aVEnjoyment
p3206
aVOther
p3207
aVSadness
p3208
aVSurprise
p3209
aVDisgust
p3210
aVEnjoyment
p3211
aVEnjoyment
p3212
aVOther
p3213
aVOther
p3214
aVEnjoyment
p3215
aVSadness
p3216
aVSadness
p3217
aVEnjoyment
p3218
aVDisgust
p3219
aVEnjoyment
p3220
aVEnjoyment
p3221
aVOther
p3222
aVEnjoyment
p3223
aVEnjoyment
p3224
aVEnjoyment
p3225
aVAnger
p3226
aVSurprise
p3227
aVOther
p3228
aVEnjoyment
p3229
aVAnger
p3230
aVDisgust
p3231
aVEnjoyment
p3232
aVOther
p3233
aVOther
p3234
aVEnjoyment
p3235
aVSurprise
p3236
aVSadness
p3237
aVFear
p3238
aVOther
p3239
aVOther
p3240
aVEnjoyment
p3241
aVSadness
p3242
aVEnjoyment
p3243
aVSadness
p3244
aVAnger
p3245
aVOther
p3246
aVEnjoyment
p3247
aVAnger
p3248
aVEnjoyment
p3249
aVEnjoyment
p3250
aVEnjoyment
p3251
aVEnjoyment
p3252
aVSurprise
p3253
aVEnjoyment
p3254
aVDisgust
p3255
aVSadness
p3256
aVAnger
p3257
aVEnjoyment
p3258
aVOther
p3259
aVAnger
p3260
aVDisgust
p3261
aVDisgust
p3262
aVOther
p3263
aVAnger
p3264
aVSurprise
p3265
aVFear
p3266
aVOther
p3267
aVSurprise
p3268
aVDisgust
p3269
aVDisgust
p3270
aVDisgust
p3271
aVDisgust
p3272
aVSurprise
p3273
aVSurprise
p3274
aVAnger
p3275
aVDisgust
p3276
aVSadness
p3277
aVEnjoyment
p3278
aVEnjoyment
p3279
aVSadness
p3280
aVSadness
p3281
aVFear
p3282
aVOther
p3283
aVOther
p3284
aVEnjoyment
p3285
aVEnjoyment
p3286
aVDisgust
p3287
aVEnjoyment
p3288
aVEnjoyment
p3289
aVOther
p3290
aVOther
p3291
aVOther
p3292
aVEnjoyment
p3293
aVOther
p3294
aVSurprise
p3295
aVAnger
p3296
aVEnjoyment
p3297
aVEnjoyment
p3298
aVSadness
p3299
aVOther
p3300
aVEnjoyment
p3301
aVSadness
p3302
aVEnjoyment
p3303
aVAnger
p3304
aVSurprise
p3305
aVSadness
p3306
aVDisgust
p3307
aVDisgust
p3308
aVDisgust
p3309
aVSadness
p3310
aVOther
p3311
aVEnjoyment
p3312
aVSadness
p3313
aVOther
p3314
aVEnjoyment
p3315
aVAnger
p3316
aVEnjoyment
p3317
aVSurprise
p3318
aVEnjoyment
p3319
aVOther
p3320
aVOther
p3321
aVOther
p3322
aVEnjoyment
p3323
aVOther
p3324
aVAnger
p3325
aVDisgust
p3326
aVSadness
p3327
aVSadness
p3328
aVEnjoyment
p3329
aVDisgust
p3330
aVDisgust
p3331
aVEnjoyment
p3332
aVEnjoyment
p3333
aVEnjoyment
p3334
aVEnjoyment
p3335
aVOther
p3336
aVFear
p3337
aVSadness
p3338
aVDisgust
p3339
aVEnjoyment
p3340
aVOther
p3341
aVEnjoyment
p3342
aVSadness
p3343
aVOther
p3344
aVSadness
p3345
aVOther
p3346
aVSadness
p3347
aVDisgust
p3348
aVOther
p3349
aVOther
p3350
aVOther
p3351
aVEnjoyment
p3352
aVEnjoyment
p3353
aVDisgust
p3354
aVDisgust
p3355
aVDisgust
p3356
aVSurprise
p3357
aVFear
p3358
aVEnjoyment
p3359
aVOther
p3360
aVEnjoyment
p3361
aVDisgust
p3362
aVEnjoyment
p3363
aVEnjoyment
p3364
aVOther
p3365
aVSadness
p3366
aVDisgust
p3367
aVEnjoyment
p3368
aVAnger
p3369
aVSadness
p3370
aVEnjoyment
p3371
aVAnger
p3372
aVOther
p3373
aVDisgust
p3374
aVSadness
p3375
aVEnjoyment
p3376
aVEnjoyment
p3377
aVEnjoyment
p3378
aVOther
p3379
aVOther
p3380
aVOther
p3381
aVSurprise
p3382
aVAnger
p3383
aVOther
p3384
aVDisgust
p3385
aVOther
p3386
aVSadness
p3387
aVDisgust
p3388
aVEnjoyment
p3389
aVSadness
p3390
aVSurprise
p3391
aVEnjoyment
p3392
aVOther
p3393
aVEnjoyment
p3394
aVSurprise
p3395
aVDisgust
p3396
aVOther
p3397
aVEnjoyment
p3398
aVOther
p3399
aVEnjoyment
p3400
aVSurprise
p3401
aVEnjoyment
p3402
aVSadness
p3403
aVOther
p3404
aVSadness
p3405
aVFear
p3406
aVDisgust
p3407
aVOther
p3408
aVEnjoyment
p3409
aVOther
p3410
aVEnjoyment
p3411
aVSadness
p3412
aVSadness
p3413
aVEnjoyment
p3414
aVEnjoyment
p3415
aVDisgust
p3416
aVEnjoyment
p3417
aVDisgust
p3418
aVSadness
p3419
aVAnger
p3420
aVEnjoyment
p3421
aVFear
p3422
aVOther
p3423
aVSadness
p3424
aVDisgust
p3425
aVOther
p3426
aVOther
p3427
aVSadness
p3428
aVAnger
p3429
aVSadness
p3430
aVOther
p3431
aVDisgust
p3432
aVSadness
p3433
aVOther
p3434
aVDisgust
p3435
aVDisgust
p3436
aVSurprise
p3437
aVEnjoyment
p3438
aVOther
p3439
aVFear
p3440
aVSadness
p3441
aVEnjoyment
p3442
aVOther
p3443
aVEnjoyment
p3444
aVDisgust
p3445
aVFear
p3446
aVEnjoyment
p3447
aVEnjoyment
p3448
aVEnjoyment
p3449
aVSadness
p3450
aVDisgust
p3451
aVOther
p3452
aVEnjoyment
p3453
aVSadness
p3454
aVEnjoyment
p3455
aVDisgust
p3456
aVSadness
p3457
aVEnjoyment
p3458
aVOther
p3459
aVDisgust
p3460
aVDisgust
p3461
aVEnjoyment
p3462
aVEnjoyment
p3463
aVEnjoyment
p3464
aVOther
p3465
aVEnjoyment
p3466
aVFear
p3467
aVSadness
p3468
aVSurprise
p3469
aVEnjoyment
p3470
aVEnjoyment
p3471
aVDisgust
p3472
aVSadness
p3473
aVEnjoyment
p3474
aVSadness
p3475
aVAnger
p3476
aVEnjoyment
p3477
aVEnjoyment
p3478
aVSadness
p3479
aVEnjoyment
p3480
aVOther
p3481
aVOther
p3482
aVOther
p3483
aVEnjoyment
p3484
aVSadness
p3485
aVEnjoyment
p3486
aVDisgust
p3487
aVSadness
p3488
aVEnjoyment
p3489
aVDisgust
p3490
aVEnjoyment
p3491
aVOther
p3492
aVFear
p3493
aVSadness
p3494
aVSadness
p3495
aVDisgust
p3496
aVOther
p3497
aVSadness
p3498
aVOther
p3499
aVEnjoyment
p3500
aVSadness
p3501
aVFear
p3502
aVEnjoyment
p3503
aVAnger
p3504
aVSurprise
p3505
aVOther
p3506
aVSurprise
p3507
aVDisgust
p3508
aVEnjoyment
p3509
aVDisgust
p3510
aVDisgust
p3511
aVEnjoyment
p3512
aVEnjoyment
p3513
aVEnjoyment
p3514
aVDisgust
p3515
aVSadness
p3516
aVDisgust
p3517
aVDisgust
p3518
aVDisgust
p3519
aVSadness
p3520
aVOther
p3521
aVOther
p3522
aVEnjoyment
p3523
aVEnjoyment
p3524
aVDisgust
p3525
aVEnjoyment
p3526
aVEnjoyment
p3527
aVSadness
p3528
aVDisgust
p3529
aVDisgust
p3530
aVEnjoyment
p3531
aVDisgust
p3532
aVEnjoyment
p3533
aVEnjoyment
p3534
aVEnjoyment
p3535
aVOther
p3536
aVOther
p3537
aVDisgust
p3538
aVEnjoyment
p3539
aVEnjoyment
p3540
aVDisgust
p3541
aVEnjoyment
p3542
aVEnjoyment
p3543
aVDisgust
p3544
aVEnjoyment
p3545
aVEnjoyment
p3546
aVSadness
p3547
aVSadness
p3548
aVOther
p3549
aVSurprise
p3550
aVOther
p3551
aVOther
p3552
aVSadness
p3553
aVEnjoyment
p3554
aVSadness
p3555
aVEnjoyment
p3556
aVOther
p3557
aVOther
p3558
aVAnger
p3559
aVEnjoyment
p3560
aVFear
p3561
aVSadness
p3562
aVEnjoyment
p3563
aVSadness
p3564
aVOther
p3565
aVSadness
p3566
aVDisgust
p3567
aVDisgust
p3568
aVDisgust
p3569
aVEnjoyment
p3570
aVDisgust
p3571
aVSadness
p3572
aVOther
p3573
aVSadness
p3574
aVEnjoyment
p3575
aVSadness
p3576
aVOther
p3577
aVOther
p3578
aVEnjoyment
p3579
aVFear
p3580
aVOther
p3581
aVFear
p3582
aVDisgust
p3583
aVSurprise
p3584
aVSadness
p3585
aVDisgust
p3586
aVAnger
p3587
aVOther
p3588
aVSadness
p3589
aVSadness
p3590
aVDisgust
p3591
aVSadness
p3592
aVEnjoyment
p3593
aVSadness
p3594
aVSadness
p3595
aVDisgust
p3596
aVEnjoyment
p3597
aVFear
p3598
aVAnger
p3599
aVSurprise
p3600
aVOther
p3601
aVOther
p3602
aVDisgust
p3603
aVEnjoyment
p3604
aVOther
p3605
aVEnjoyment
p3606
aVEnjoyment
p3607
aVDisgust
p3608
aVOther
p3609
aVEnjoyment
p3610
aVEnjoyment
p3611
aVEnjoyment
p3612
aVSadness
p3613
aVSadness
p3614
aVEnjoyment
p3615
aVSadness
p3616
aVDisgust
p3617
aVOther
p3618
aVOther
p3619
aVDisgust
p3620
aVSadness
p3621
aVOther
p3622
aVSadness
p3623
aVSadness
p3624
aVEnjoyment
p3625
aVSadness
p3626
aVEnjoyment
p3627
aVDisgust
p3628
aVDisgust
p3629
aVAnger
p3630
aVSadness
p3631
aVOther
p3632
aVFear
p3633
aVSadness
p3634
aVSadness
p3635
aVSurprise
p3636
aVOther
p3637
aVDisgust
p3638
aVDisgust
p3639
aVEnjoyment
p3640
aVSadness
p3641
aVDisgust
p3642
aVFear
p3643
aVAnger
p3644
aVSurprise
p3645
aVEnjoyment
p3646
aVFear
p3647
aVEnjoyment
p3648
aVAnger
p3649
aVFear
p3650
aVOther
p3651
aVDisgust
p3652
aVFear
p3653
aVFear
p3654
aVSadness
p3655
aVFear
p3656
aVOther
p3657
aVEnjoyment
p3658
aVDisgust
p3659
aVDisgust
p3660
aVAnger
p3661
aVSadness
p3662
aVOther
p3663
aVEnjoyment
p3664
aVFear
p3665
aVFear
p3666
aVOther
p3667
aVEnjoyment
p3668
aVFear
p3669
aVAnger
p3670
aVFear
p3671
aVDisgust
p3672
aVSurprise
p3673
aVOther
p3674
aVDisgust
p3675
aVEnjoyment
p3676
aVDisgust
p3677
aVFear
p3678
aVEnjoyment
p3679
aVEnjoyment
p3680
aVEnjoyment
p3681
aVSurprise
p3682
aVSadness
p3683
aVAnger
p3684
aVOther
p3685
aVDisgust
p3686
aVFear
p3687
aVEnjoyment
p3688
aVFear
p3689
aVOther
p3690
aVSadness
p3691
aVSurprise
p3692
aVEnjoyment
p3693
aVEnjoyment
p3694
aVDisgust
p3695
aVEnjoyment
p3696
aVOther
p3697
aVEnjoyment
p3698
aVEnjoyment
p3699
aVOther
p3700
aVAnger
p3701
aVAnger
p3702
aVSadness
p3703
aVOther
p3704
aVSurprise
p3705
aVOther
p3706
aVDisgust
p3707
aVEnjoyment
p3708
aVEnjoyment
p3709
aVEnjoyment
p3710
aVOther
p3711
aVSadness
p3712
aVDisgust
p3713
aVOther
p3714
aVEnjoyment
p3715
aVEnjoyment
p3716
aVEnjoyment
p3717
aVSadness
p3718
aVSadness
p3719
aVDisgust
p3720
aVOther
p3721
aVEnjoyment
p3722
aVDisgust
p3723
aVEnjoyment
p3724
aVDisgust
p3725
aVEnjoyment
p3726
aVOther
p3727
aVEnjoyment
p3728
aVFear
p3729
aVSadness
p3730
aVSadness
p3731
aVOther
p3732
aVSadness
p3733
aVAnger
p3734
aVDisgust
p3735
aVAnger
p3736
aVDisgust
p3737
aVEnjoyment
p3738
aVEnjoyment
p3739
aVDisgust
p3740
aVFear
p3741
aVEnjoyment
p3742
aVSadness
p3743
aVDisgust
p3744
aVOther
p3745
aVOther
p3746
aVDisgust
p3747
aVEnjoyment
p3748
aVDisgust
p3749
aVAnger
p3750
aVSurprise
p3751
aVEnjoyment
p3752
aVFear
p3753
aVFear
p3754
aVAnger
p3755
aVEnjoyment
p3756
aVEnjoyment
p3757
aVOther
p3758
aVEnjoyment
p3759
aVOther
p3760
aVOther
p3761
aVOther
p3762
aVDisgust
p3763
aVEnjoyment
p3764
aVSadness
p3765
aVDisgust
p3766
aVEnjoyment
p3767
aVAnger
p3768
aVFear
p3769
aVOther
p3770
aVEnjoyment
p3771
aVDisgust
p3772
aVFear
p3773
aVEnjoyment
p3774
aVAnger
p3775
aVFear
p3776
aVEnjoyment
p3777
aVEnjoyment
p3778
aVOther
p3779
aVEnjoyment
p3780
aVOther
p3781
aVOther
p3782
aVSadness
p3783
aVDisgust
p3784
aVSadness
p3785
aVSurprise
p3786
aVSadness
p3787
aVOther
p3788
aVOther
p3789
aVDisgust
p3790
aVSadness
p3791
aVAnger
p3792
aVEnjoyment
p3793
aVDisgust
p3794
aVEnjoyment
p3795
aVEnjoyment
p3796
aVDisgust
p3797
aVEnjoyment
p3798
aVEnjoyment
p3799
aVOther
p3800
aVSadness
p3801
aVEnjoyment
p3802
aVDisgust
p3803
aVEnjoyment
p3804
aVDisgust
p3805
aVFear
p3806
aVDisgust
p3807
aVSadness
p3808
aVSadness
p3809
aVOther
p3810
aVSadness
p3811
aVEnjoyment
p3812
aVSadness
p3813
aVDisgust
p3814
aVOther
p3815
aVFear
p3816
aVDisgust
p3817
aVEnjoyment
p3818
aVFear
p3819
aVDisgust
p3820
aVOther
p3821
aVOther
p3822
aVSurprise
p3823
aVEnjoyment
p3824
aVSadness
p3825
aVEnjoyment
p3826
aVEnjoyment
p3827
aVEnjoyment
p3828
aVFear
p3829
aVSadness
p3830
aVEnjoyment
p3831
aVFear
p3832
aVEnjoyment
p3833
aVOther
p3834
aVEnjoyment
p3835
aVSurprise
p3836
aVFear
p3837
aVFear
p3838
aVSadness
p3839
aVSadness
p3840
aVDisgust
p3841
aVFear
p3842
aVSurprise
p3843
aVAnger
p3844
aVAnger
p3845
aVFear
p3846
aVSadness
p3847
aVOther
p3848
aVEnjoyment
p3849
aVAnger
p3850
aVSadness
p3851
aVSurprise
p3852
aVSadness
p3853
aVEnjoyment
p3854
aVSurprise
p3855
aVSadness
p3856
aVEnjoyment
p3857
aVOther
p3858
aVSadness
p3859
aVDisgust
p3860
aVSadness
p3861
aVOther
p3862
aVOther
p3863
aVEnjoyment
p3864
aVSadness
p3865
aVEnjoyment
p3866
aVEnjoyment
p3867
aVOther
p3868
aVOther
p3869
aVEnjoyment
p3870
aVOther
p3871
aVSadness
p3872
aVAnger
p3873
aVEnjoyment
p3874
aVEnjoyment
p3875
aVDisgust
p3876
aVSadness
p3877
aVDisgust
p3878
aVDisgust
p3879
aVAnger
p3880
aVEnjoyment
p3881
aVOther
p3882
aVAnger
p3883
aVEnjoyment
p3884
aVEnjoyment
p3885
aVSadness
p3886
aVDisgust
p3887
aVEnjoyment
p3888
aVOther
p3889
aVEnjoyment
p3890
aVEnjoyment
p3891
aVSadness
p3892
aVFear
p3893
aVEnjoyment
p3894
aVDisgust
p3895
aVSurprise
p3896
aVFear
p3897
aVEnjoyment
p3898
aVSadness
p3899
aVOther
p3900
aVOther
p3901
aVSurprise
p3902
aVEnjoyment
p3903
aVAnger
p3904
aVFear
p3905
aVOther
p3906
aVOther
p3907
aVSadness
p3908
aVSadness
p3909
aVSadness
p3910
aVAnger
p3911
aVDisgust
p3912
aVSadness
p3913
aVFear
p3914
aVEnjoyment
p3915
aVSurprise
p3916
aVEnjoyment
p3917
aVSadness
p3918
aVEnjoyment
p3919
aVDisgust
p3920
aVAnger
p3921
aVSadness
p3922
aVSadness
p3923
aVSadness
p3924
aVSadness
p3925
aVAnger
p3926
aVSadness
p3927
aVEnjoyment
p3928
aVSadness
p3929
aVFear
p3930
aVSurprise
p3931
aVDisgust
p3932
aVDisgust
p3933
aVOther
p3934
aVOther
p3935
aVDisgust
p3936
aVEnjoyment
p3937
aVEnjoyment
p3938
aVDisgust
p3939
aVOther
p3940
aVEnjoyment
p3941
aVAnger
p3942
aVOther
p3943
aVSurprise
p3944
aVSadness
p3945
aVEnjoyment
p3946
aVDisgust
p3947
aVOther
p3948
aVEnjoyment
p3949
aVAnger
p3950
aVEnjoyment
p3951
aVEnjoyment
p3952
aVOther
p3953
aVDisgust
p3954
aVSadness
p3955
aVDisgust
p3956
aVDisgust
p3957
aVDisgust
p3958
aVEnjoyment
p3959
aVSadness
p3960
aVFear
p3961
aVSadness
p3962
aVOther
p3963
aVSadness
p3964
aVDisgust
p3965
aVSurprise
p3966
aVSurprise
p3967
aVDisgust
p3968
aVDisgust
p3969
aVEnjoyment
p3970
aVFear
p3971
aVEnjoyment
p3972
aVSadness
p3973
aVDisgust
p3974
aVOther
p3975
aVEnjoyment
p3976
aVEnjoyment
p3977
aVDisgust
p3978
aVEnjoyment
p3979
aVOther
p3980
aVDisgust
p3981
aVOther
p3982
aVAnger
p3983
aVOther
p3984
aVSadness
p3985
aVDisgust
p3986
aVEnjoyment
p3987
aVOther
p3988
aVEnjoyment
p3989
aVOther
p3990
aVAnger
p3991
aVOther
p3992
aVFear
p3993
aVEnjoyment
p3994
aVSadness
p3995
aVDisgust
p3996
aVEnjoyment
p3997
aVOther
p3998
aVDisgust
p3999
aVAnger
p4000
aVAnger
p4001
aVOther
p4002
aVEnjoyment
p4003
aVSurprise
p4004
aVDisgust
p4005
aVFear
p4006
aVAnger
p4007
aVSadness
p4008
aVOther
p4009
aVEnjoyment
p4010
aVOther
p4011
aVEnjoyment
p4012
aVDisgust
p4013
aVDisgust
p4014
aVOther
p4015
aVEnjoyment
p4016
aVDisgust
p4017
aVSadness
p4018
aVSadness
p4019
aVSadness
p4020
aVEnjoyment
p4021
aVEnjoyment
p4022
aVSadness
p4023
aVEnjoyment
p4024
aVAnger
p4025
aVDisgust
p4026
aVOther
p4027
aVOther
p4028
aVEnjoyment
p4029
aVOther
p4030
aVSadness
p4031
aVEnjoyment
p4032
aVEnjoyment
p4033
aVFear
p4034
aVEnjoyment
p4035
aVEnjoyment
p4036
aVSadness
p4037
aVEnjoyment
p4038
aVDisgust
p4039
aVSadness
p4040
aVOther
p4041
aVSadness
p4042
aVDisgust
p4043
aVSadness
p4044
aVEnjoyment
p4045
aVEnjoyment
p4046
aVSadness
p4047
aVOther
p4048
aVSurprise
p4049
aVDisgust
p4050
aVDisgust
p4051
aVOther
p4052
aVSurprise
p4053
aVSadness
p4054
aVOther
p4055
aVEnjoyment
p4056
aVEnjoyment
p4057
aVEnjoyment
p4058
aVOther
p4059
aVOther
p4060
aVSadness
p4061
aVEnjoyment
p4062
aVAnger
p4063
aVEnjoyment
p4064
aVEnjoyment
p4065
aVEnjoyment
p4066
aVAnger
p4067
aVSadness
p4068
aVOther
p4069
aVOther
p4070
aVDisgust
p4071
aVDisgust
p4072
aVOther
p4073
aVOther
p4074
aVOther
p4075
aVDisgust
p4076
aVSadness
p4077
aVEnjoyment
p4078
aVOther
p4079
aVOther
p4080
aVOther
p4081
aVEnjoyment
p4082
aVSadness
p4083
aVSurprise
p4084
aVOther
p4085
aVSurprise
p4086
aVOther
p4087
aVOther
p4088
aVEnjoyment
p4089
aVOther
p4090
aVEnjoyment
p4091
aVAnger
p4092
aVOther
p4093
aVSadness
p4094
aVOther
p4095
aVOther
p4096
aVSadness
p4097
aVEnjoyment
p4098
aVSadness
p4099
aVOther
p4100
aVSadness
p4101
aVEnjoyment
p4102
aVSadness
p4103
aVEnjoyment
p4104
aVEnjoyment
p4105
aVSadness
p4106
aVDisgust
p4107
aVEnjoyment
p4108
aVDisgust
p4109
aVAnger
p4110
aVEnjoyment
p4111
aVSadness
p4112
aVEnjoyment
p4113
aVEnjoyment
p4114
aVEnjoyment
p4115
aVEnjoyment
p4116
aVSadness
p4117
aVDisgust
p4118
aVOther
p4119
aVEnjoyment
p4120
aVSadness
p4121
aVDisgust
p4122
aVEnjoyment
p4123
aVEnjoyment
p4124
aVAnger
p4125
aVOther
p4126
aVEnjoyment
p4127
aVEnjoyment
p4128
aVEnjoyment
p4129
aVEnjoyment
p4130
aVOther
p4131
aVEnjoyment
p4132
aVOther
p4133
aVSadness
p4134
aVSadness
p4135
aVOther
p4136
aVOther
p4137
aVFear
p4138
aVOther
p4139
aVEnjoyment
p4140
aVEnjoyment
p4141
aVSurprise
p4142
aVSadness
p4143
aVFear
p4144
aVEnjoyment
p4145
aVOther
p4146
aVEnjoyment
p4147
aVSadness
p4148
aVSurprise
p4149
aVEnjoyment
p4150
aVSadness
p4151
aVDisgust
p4152
aVDisgust
p4153
aVSadness
p4154
aVAnger
p4155
aVFear
p4156
aVSadness
p4157
aVDisgust
p4158
aVDisgust
p4159
aVEnjoyment
p4160
aVDisgust
p4161
aVDisgust
p4162
aVOther
p4163
aVSadness
p4164
aVEnjoyment
p4165
aVOther
p4166
aVSadness
p4167
aVSurprise
p4168
aVEnjoyment
p4169
aVEnjoyment
p4170
aVOther
p4171
aVDisgust
p4172
aVDisgust
p4173
aVEnjoyment
p4174
aVEnjoyment
p4175
aVAnger
p4176
aVOther
p4177
aVSadness
p4178
aVEnjoyment
p4179
aVAnger
p4180
aVAnger
p4181
aVDisgust
p4182
aVOther
p4183
aVEnjoyment
p4184
aVOther
p4185
aVOther
p4186
aVDisgust
p4187
aVOther
p4188
aVSurprise
p4189
aVEnjoyment
p4190
aVSadness
p4191
aVAnger
p4192
aVEnjoyment
p4193
aVSadness
p4194
aVFear
p4195
aVFear
p4196
aVOther
p4197
aVOther
p4198
aVDisgust
p4199
aVDisgust
p4200
aVFear
p4201
aVSadness
p4202
aVEnjoyment
p4203
aVEnjoyment
p4204
aVOther
p4205
aVDisgust
p4206
aVDisgust
p4207
aVEnjoyment
p4208
aVOther
p4209
aVDisgust
p4210
aVSadness
p4211
aVEnjoyment
p4212
aVSadness
p4213
aVSadness
p4214
aVDisgust
p4215
aVEnjoyment
p4216
aVOther
p4217
aVFear
p4218
aVEnjoyment
p4219
aVAnger
p4220
aVDisgust
p4221
aVOther
p4222
aVSadness
p4223
aVEnjoyment
p4224
aVSadness
p4225
aVEnjoyment
p4226
aVSurprise
p4227
aVSadness
p4228
aVDisgust
p4229
aVEnjoyment
p4230
aVOther
p4231
aVSadness
p4232
aVDisgust
p4233
aVOther
p4234
aVOther
p4235
aVEnjoyment
p4236
aVEnjoyment
p4237
aVOther
p4238
aVDisgust
p4239
aVEnjoyment
p4240
aVEnjoyment
p4241
aVFear
p4242
aVDisgust
p4243
aVEnjoyment
p4244
aVSadness
p4245
aVEnjoyment
p4246
aVEnjoyment
p4247
aVEnjoyment
p4248
aVSadness
p4249
aVDisgust
p4250
aVSadness
p4251
aVDisgust
p4252
aVDisgust
p4253
aVFear
p4254
aVSurprise
p4255
aVOther
p4256
aVEnjoyment
p4257
aVOther
p4258
aVDisgust
p4259
aVOther
p4260
aVSadness
p4261
aVEnjoyment
p4262
aVSadness
p4263
aVDisgust
p4264
aVSadness
p4265
aVSadness
p4266
aVSadness
p4267
aVSadness
p4268
aVDisgust
p4269
aVSadness
p4270
aVEnjoyment
p4271
aVOther
p4272
aVEnjoyment
p4273
aVSadness
p4274
aVOther
p4275
aVEnjoyment
p4276
aVEnjoyment
p4277
aVOther
p4278
aVDisgust
p4279
aVOther
p4280
aVDisgust
p4281
aVOther
p4282
aVEnjoyment
p4283
aVEnjoyment
p4284
aVSurprise
p4285
aVFear
p4286
aVAnger
p4287
aVSadness
p4288
aVOther
p4289
aVDisgust
p4290
aVSadness
p4291
aVSadness
p4292
aVOther
p4293
aVAnger
p4294
aVFear
p4295
aVOther
p4296
aVEnjoyment
p4297
aVEnjoyment
p4298
aVOther
p4299
aVEnjoyment
p4300
aVSadness
p4301
aVOther
p4302
aVSadness
p4303
aVSadness
p4304
aVFear
p4305
aVOther
p4306
aVSadness
p4307
aVDisgust
p4308
aVSurprise
p4309
aVSadness
p4310
aVSadness
p4311
aVOther
p4312
aVEnjoyment
p4313
aVEnjoyment
p4314
aVOther
p4315
aVOther
p4316
aVSadness
p4317
aVDisgust
p4318
aVDisgust
p4319
aVEnjoyment
p4320
aVSadness
p4321
aVSurprise
p4322
aVOther
p4323
aVDisgust
p4324
aVDisgust
p4325
aVOther
p4326
aVOther
p4327
aVAnger
p4328
aVAnger
p4329
aVOther
p4330
aVEnjoyment
p4331
aVSadness
p4332
aVDisgust
p4333
aVSadness
p4334
aVDisgust
p4335
aVOther
p4336
aVSadness
p4337
aVSadness
p4338
aVEnjoyment
p4339
aVOther
p4340
aVDisgust
p4341
aVEnjoyment
p4342
aVOther
p4343
aVEnjoyment
p4344
aVDisgust
p4345
aVDisgust
p4346
aVAnger
p4347
aVSadness
p4348
aVFear
p4349
aVEnjoyment
p4350
aVDisgust
p4351
aVOther
p4352
aVSadness
p4353
aVFear
p4354
aVSadness
p4355
aVAnger
p4356
aVDisgust
p4357
aVDisgust
p4358
aVAnger
p4359
aVSadness
p4360
aVDisgust
p4361
aVSurprise
p4362
aVDisgust
p4363
aVSadness
p4364
aVDisgust
p4365
aVEnjoyment
p4366
aVEnjoyment
p4367
aVOther
p4368
aVSadness
p4369
aVOther
p4370
aVFear
p4371
aVOther
p4372
aVDisgust
p4373
aVSadness
p4374
aVFear
p4375
aVFear
p4376
aVEnjoyment
p4377
aVSadness
p4378
aVAnger
p4379
aVEnjoyment
p4380
aVEnjoyment
p4381
aVOther
p4382
aVSadness
p4383
aVSurprise
p4384
aVEnjoyment
p4385
aVOther
p4386
aVEnjoyment
p4387
aVFear
p4388
aVSadness
p4389
aVDisgust
p4390
aVOther
p4391
aVFear
p4392
aVEnjoyment
p4393
aVEnjoyment
p4394
aVDisgust
p4395
aVEnjoyment
p4396
aVSadness
p4397
aVOther
p4398
aVSadness
p4399
aVOther
p4400
aVEnjoyment
p4401
aVEnjoyment
p4402
aVDisgust
p4403
aVOther
p4404
aVSurprise
p4405
aVOther
p4406
aVOther
p4407
aVOther
p4408
aVSadness
p4409
aVDisgust
p4410
aVDisgust
p4411
aVEnjoyment
p4412
aVSadness
p4413
aVDisgust
p4414
aVSadness
p4415
aVOther
p4416
aVFear
p4417
aVSadness
p4418
aVOther
p4419
aVDisgust
p4420
aVEnjoyment
p4421
aVDisgust
p4422
aVDisgust
p4423
aVEnjoyment
p4424
aVEnjoyment
p4425
aVDisgust
p4426
aVSadness
p4427
aVEnjoyment
p4428
aVEnjoyment
p4429
aVSadness
p4430
aVSadness
p4431
aVDisgust
p4432
aVOther
p4433
aVOther
p4434
aVOther
p4435
aVSadness
p4436
aVDisgust
p4437
aVEnjoyment
p4438
aVDisgust
p4439
aVEnjoyment
p4440
aVFear
p4441
aVOther
p4442
aVAnger
p4443
aVDisgust
p4444
aVDisgust
p4445
aVOther
p4446
aVSadness
p4447
aVDisgust
p4448
aVEnjoyment
p4449
aVEnjoyment
p4450
aVSadness
p4451
aVAnger
p4452
aVEnjoyment
p4453
aVDisgust
p4454
aVDisgust
p4455
aVOther
p4456
aVEnjoyment
p4457
aVDisgust
p4458
aVDisgust
p4459
aVOther
p4460
aVEnjoyment
p4461
aVEnjoyment
p4462
aVEnjoyment
p4463
aVOther
p4464
aVAnger
p4465
aVEnjoyment
p4466
aVDisgust
p4467
aVSadness
p4468
aVOther
p4469
aVEnjoyment
p4470
aVSadness
p4471
aVSadness
p4472
aVOther
p4473
aVOther
p4474
aVSadness
p4475
aVSadness
p4476
aVOther
p4477
aVSadness
p4478
aVSadness
p4479
aVAnger
p4480
aVOther
p4481
aVAnger
p4482
aVEnjoyment
p4483
aVOther
p4484
aVSurprise
p4485
aVEnjoyment
p4486
aVEnjoyment
p4487
aVDisgust
p4488
aVDisgust
p4489
aVOther
p4490
aVEnjoyment
p4491
aVOther
p4492
aVSadness
p4493
aVOther
p4494
aVSadness
p4495
aVAnger
p4496
aVEnjoyment
p4497
aVDisgust
p4498
aVDisgust
p4499
aVDisgust
p4500
aVAnger
p4501
aVEnjoyment
p4502
aVEnjoyment
p4503
aVDisgust
p4504
aVOther
p4505
aVSadness
p4506
aVFear
p4507
aVEnjoyment
p4508
aVFear
p4509
aVDisgust
p4510
aVOther
p4511
aVOther
p4512
aVSadness
p4513
aVDisgust
p4514
aVEnjoyment
p4515
aVSurprise
p4516
aVOther
p4517
aVSadness
p4518
aVSadness
p4519
aVSadness
p4520
aVAnger
p4521
aVEnjoyment
p4522
aVAnger
p4523
aVOther
p4524
aVDisgust
p4525
aVEnjoyment
p4526
aVSadness
p4527
aVOther
p4528
aVAnger
p4529
aVSadness
p4530
aVEnjoyment
p4531
aVOther
p4532
aVDisgust
p4533
aVDisgust
p4534
aVSurprise
p4535
aVSurprise
p4536
aVEnjoyment
p4537
aVEnjoyment
p4538
aVDisgust
p4539
aVSadness
p4540
aVEnjoyment
p4541
aVEnjoyment
p4542
aVSadness
p4543
aVSadness
p4544
aVEnjoyment
p4545
aVOther
p4546
aVSadness
p4547
aVDisgust
p4548
aVAnger
p4549
aVSadness
p4550
aVSadness
p4551
aVEnjoyment
p4552
aVOther
p4553
aVDisgust
p4554
aVSadness
p4555
aVOther
p4556
aVEnjoyment
p4557
aVSadness
p4558
aVSurprise
p4559
aVOther
p4560
aVAnger
p4561
aVEnjoyment
p4562
aVDisgust
p4563
aVOther
p4564
aVEnjoyment
p4565
aVSadness
p4566
aVFear
p4567
aVAnger
p4568
aVEnjoyment
p4569
aVSadness
p4570
aVEnjoyment
p4571
aVSurprise
p4572
aVEnjoyment
p4573
aVDisgust
p4574
aVOther
p4575
aVEnjoyment
p4576
aVSadness
p4577
aVSadness
p4578
aVDisgust
p4579
aVSadness
p4580
aVOther
p4581
aVEnjoyment
p4582
aVOther
p4583
aVFear
p4584
aVOther
p4585
aVOther
p4586
aVOther
p4587
aVSadness
p4588
aVDisgust
p4589
aVSadness
p4590
aVSadness
p4591
aVEnjoyment
p4592
aVEnjoyment
p4593
aVDisgust
p4594
aVSadness
p4595
aVSadness
p4596
aVEnjoyment
p4597
aVEnjoyment
p4598
aVDisgust
p4599
aVOther
p4600
aVOther
p4601
aVAnger
p4602
aVAnger
p4603
aVEnjoyment
p4604
aVOther
p4605
aVSadness
p4606
aVSadness
p4607
aVEnjoyment
p4608
aVDisgust
p4609
aVSurprise
p4610
aVOther
p4611
aVEnjoyment
p4612
aVDisgust
p4613
aVSadness
p4614
aVOther
p4615
aVDisgust
p4616
aVFear
p4617
aVOther
p4618
aVAnger
p4619
aVOther
p4620
aVSadness
p4621
aVOther
p4622
aVFear
p4623
aVEnjoyment
p4624
aVSadness
p4625
aVOther
p4626
aVSadness
p4627
aVDisgust
p4628
aVDisgust
p4629
aVAnger
p4630
aVSadness
p4631
aVAnger
p4632
aVSadness
p4633
aVOther
p4634
aVEnjoyment
p4635
aVEnjoyment
p4636
aVOther
p4637
aVDisgust
p4638
aVAnger
p4639
aVSadness
p4640
aVDisgust
p4641
aVSadness
p4642
aVSadness
p4643
aVEnjoyment
p4644
aVDisgust
p4645
aVDisgust
p4646
aVEnjoyment
p4647
aVDisgust
p4648
aVOther
p4649
aVOther
p4650
aVSadness
p4651
aVSurprise
p4652
aVAnger
p4653
aVDisgust
p4654
aVAnger
p4655
aVEnjoyment
p4656
aVSadness
p4657
aVDisgust
p4658
aVEnjoyment
p4659
aVSadness
p4660
aVEnjoyment
p4661
aVOther
p4662
aVOther
p4663
aVEnjoyment
p4664
aVEnjoyment
p4665
aVDisgust
p4666
aVFear
p4667
aVOther
p4668
aVOther
p4669
aVEnjoyment
p4670
aVOther
p4671
aVAnger
p4672
aVSadness
p4673
aVOther
p4674
aVAnger
p4675
aVEnjoyment
p4676
aVSadness
p4677
aVSadness
p4678
aVEnjoyment
p4679
aVEnjoyment
p4680
aVSurprise
p4681
aVAnger
p4682
aVOther
p4683
aVOther
p4684
aVDisgust
p4685
aVDisgust
p4686
aVEnjoyment
p4687
aVEnjoyment
p4688
aVOther
p4689
aVDisgust
p4690
aVEnjoyment
p4691
aVOther
p4692
aVSadness
p4693
aVSadness
p4694
aVSadness
p4695
aVSadness
p4696
aVEnjoyment
p4697
aVDisgust
p4698
aVFear
p4699
aVOther
p4700
aVOther
p4701
aVOther
p4702
aVFear
p4703
aVSadness
p4704
aVEnjoyment
p4705
aVDisgust
p4706
aVSadness
p4707
aVSadness
p4708
aVDisgust
p4709
aVEnjoyment
p4710
aVDisgust
p4711
aVSadness
p4712
aVEnjoyment
p4713
aVSadness
p4714
aVEnjoyment
p4715
aVSadness
p4716
aVOther
p4717
aVEnjoyment
p4718
aVAnger
p4719
aVEnjoyment
p4720
aVOther
p4721
aVDisgust
p4722
aVEnjoyment
p4723
aVSadness
p4724
aVDisgust
p4725
aVFear
p4726
aVSadness
p4727
aVOther
p4728
aVDisgust
p4729
aVOther
p4730
aVEnjoyment
p4731
aVEnjoyment
p4732
aVEnjoyment
p4733
aVEnjoyment
p4734
aVDisgust
p4735
aVDisgust
p4736
aVDisgust
p4737
aVDisgust
p4738
aVSurprise
p4739
aVEnjoyment
p4740
aVSadness
p4741
aVEnjoyment
p4742
aVOther
p4743
aVOther
p4744
aVEnjoyment
p4745
aVOther
p4746
aVSurprise
p4747
aVOther
p4748
aVDisgust
p4749
aVOther
p4750
aVEnjoyment
p4751
aVSurprise
p4752
aVSadness
p4753
aVDisgust
p4754
aVEnjoyment
p4755
aVOther
p4756
aVAnger
p4757
aVDisgust
p4758
aVEnjoyment
p4759
aVDisgust
p4760
aVSadness
p4761
aVDisgust
p4762
aVOther
p4763
aVSadness
p4764
aVFear
p4765
aVDisgust
p4766
aVDisgust
p4767
aVSadness
p4768
aVEnjoyment
p4769
aVDisgust
p4770
aVAnger
p4771
aVSadness
p4772
aVEnjoyment
p4773
aVEnjoyment
p4774
aVFear
p4775
aVFear
p4776
aVEnjoyment
p4777
aVSadness
p4778
aVSadness
p4779
aVSurprise
p4780
aVDisgust
p4781
aVOther
p4782
aVAnger
p4783
aVDisgust
p4784
aVOther
p4785
aVOther
p4786
aVSadness
p4787
aVAnger
p4788
aVEnjoyment
p4789
aVEnjoyment
p4790
aVAnger
p4791
aVOther
p4792
aVDisgust
p4793
aVDisgust
p4794
aVSadness
p4795
aVSadness
p4796
aVDisgust
p4797
aVEnjoyment
p4798
aVAnger
p4799
aVSurprise
p4800
aVSadness
p4801
aVSurprise
p4802
aVOther
p4803
aVAnger
p4804
aVSadness
p4805
aVFear
p4806
aVOther
p4807
aVDisgust
p4808
aVEnjoyment
p4809
aVAnger
p4810
aVEnjoyment
p4811
aVSadness
p4812
aVDisgust
p4813
aVFear
p4814
aVDisgust
p4815
aVEnjoyment
p4816
aVDisgust
p4817
aVSadness
p4818
aVSadness
p4819
aVSurprise
p4820
aVSadness
p4821
aVSadness
p4822
aVDisgust
p4823
aVEnjoyment
p4824
aVSurprise
p4825
aVDisgust
p4826
aVFear
p4827
aVSurprise
p4828
aVSadness
p4829
aVEnjoyment
p4830
aVAnger
p4831
aVSadness
p4832
aVEnjoyment
p4833
aVEnjoyment
p4834
aVDisgust
p4835
aVOther
p4836
aVEnjoyment
p4837
aVSadness
p4838
aVOther
p4839
aVEnjoyment
p4840
aVSurprise
p4841
aVAnger
p4842
aVOther
p4843
aVDisgust
p4844
aVOther
p4845
aVSadness
p4846
aVDisgust
p4847
aVEnjoyment
p4848
aVOther
p4849
aVOther
p4850
aVOther
p4851
aVAnger
p4852
aVSadness
p4853
aVAnger
p4854
aVEnjoyment
p4855
aVSadness
p4856
aVOther
p4857
aVSadness
p4858
aVOther
p4859
aVEnjoyment
p4860
aVDisgust
p4861
aVEnjoyment
p4862
aVAnger
p4863
aVDisgust
p4864
aVDisgust
p4865
aVEnjoyment
p4866
aVOther
p4867
aVDisgust
p4868
aVSadness
p4869
aVEnjoyment
p4870
aVFear
p4871
aVSadness
p4872
aVSadness
p4873
aVOther
p4874
aVAnger
p4875
aVAnger
p4876
aVSadness
p4877
aVDisgust
p4878
aVSadness
p4879
aVEnjoyment
p4880
aVEnjoyment
p4881
aVOther
p4882
aVEnjoyment
p4883
aVOther
p4884
aVDisgust
p4885
aVEnjoyment
p4886
aVDisgust
p4887
aVDisgust
p4888
aVEnjoyment
p4889
aVDisgust
p4890
aVDisgust
p4891
aVSadness
p4892
aVEnjoyment
p4893
aVAnger
p4894
aVEnjoyment
p4895
aVEnjoyment
p4896
aVEnjoyment
p4897
aVSadness
p4898
aVEnjoyment
p4899
aVOther
p4900
aVEnjoyment
p4901
aVSadness
p4902
aVOther
p4903
aVSurprise
p4904
aVDisgust
p4905
aVOther
p4906
aVOther
p4907
aVEnjoyment
p4908
aVOther
p4909
aVDisgust
p4910
aVDisgust
p4911
aVOther
p4912
aVOther
p4913
aVSadness
p4914
aVOther
p4915
aVEnjoyment
p4916
aVFear
p4917
aVAnger
p4918
aVSadness
p4919
aVEnjoyment
p4920
aVEnjoyment
p4921
aVEnjoyment
p4922
aVSadness
p4923
aVAnger
p4924
aVEnjoyment
p4925
aVOther
p4926
aVSadness
p4927
aVEnjoyment
p4928
aVEnjoyment
p4929
aVSadness
p4930
aVDisgust
p4931
aVEnjoyment
p4932
aVDisgust
p4933
aVEnjoyment
p4934
aVFear
p4935
aVAnger
p4936
aVEnjoyment
p4937
aVAnger
p4938
aVSadness
p4939
aVOther
p4940
aVDisgust
p4941
aVEnjoyment
p4942
aVDisgust
p4943
aVOther
p4944
aVAnger
p4945
aVOther
p4946
aVEnjoyment
p4947
aVEnjoyment
p4948
aVAnger
p4949
aVEnjoyment
p4950
aVFear
p4951
aVEnjoyment
p4952
aVSadness
p4953
aVDisgust
p4954
aVSadness
p4955
aVFear
p4956
aVEnjoyment
p4957
aVOther
p4958
aVSadness
p4959
aVDisgust
p4960
aVDisgust
p4961
aVSadness
p4962
aVOther
p4963
aVOther
p4964
aVDisgust
p4965
aVAnger
p4966
aVDisgust
p4967
aVDisgust
p4968
aVOther
p4969
aVDisgust
p4970
aVDisgust
p4971
aVDisgust
p4972
aVSadness
p4973
aVDisgust
p4974
aVSadness
p4975
aVEnjoyment
p4976
aVDisgust
p4977
aVDisgust
p4978
aVEnjoyment
p4979
aVDisgust
p4980
aVEnjoyment
p4981
aVAnger
p4982
aVDisgust
p4983
aVDisgust
p4984
aVEnjoyment
p4985
aVDisgust
p4986
aVDisgust
p4987
aVEnjoyment
p4988
aVFear
p4989
aVOther
p4990
aVAnger
p4991
aVEnjoyment
p4992
aVDisgust
p4993
aVSadness
p4994
aVSadness
p4995
aVDisgust
p4996
aVDisgust
p4997
aVAnger
p4998
aVOther
p4999
aVDisgust
p5000
aVSurprise
p5001
aVDisgust
p5002
aVFear
p5003
aVEnjoyment
p5004
aVDisgust
p5005
aVEnjoyment
p5006
aVEnjoyment
p5007
aVEnjoyment
p5008
aVEnjoyment
p5009
aVSurprise
p5010
aVOther
p5011
aVSadness
p5012
aVDisgust
p5013
aVSadness
p5014
aVDisgust
p5015
aVSadness
p5016
aVOther
p5017
aVEnjoyment
p5018
aVAnger
p5019
aVEnjoyment
p5020
aVSadness
p5021
aVSadness
p5022
aVDisgust
p5023
aVAnger
p5024
aVFear
p5025
aVEnjoyment
p5026
aVOther
p5027
aVDisgust
p5028
aVOther
p5029
aVOther
p5030
aVDisgust
p5031
aVDisgust
p5032
aVDisgust
p5033
aVDisgust
p5034
aVEnjoyment
p5035
aVDisgust
p5036
aVFear
p5037
aVSadness
p5038
aVOther
p5039
aVDisgust
p5040
aVDisgust
p5041
aVFear
p5042
aVSadness
p5043
aVDisgust
p5044
aVSadness
p5045
aVFear
p5046
aVOther
p5047
aVEnjoyment
p5048
aVSurprise
p5049
aVOther
p5050
aVOther
p5051
aVEnjoyment
p5052
aVSadness
p5053
aVSadness
p5054
aVSadness
p5055
aVSurprise
p5056
aVEnjoyment
p5057
aVSadness
p5058
aVFear
p5059
aVOther
p5060
aVDisgust
p5061
aVEnjoyment
p5062
aVSadness
p5063
aVSurprise
p5064
aVSadness
p5065
aVFear
p5066
aVOther
p5067
aVEnjoyment
p5068
aVEnjoyment
p5069
aVFear
p5070
aVFear
p5071
aVFear
p5072
aVOther
p5073
aVSadness
p5074
aVEnjoyment
p5075
aVEnjoyment
p5076
aVOther
p5077
aVSadness
p5078
aVFear
p5079
aVOther
p5080
aVEnjoyment
p5081
aVEnjoyment
p5082
aVFear
p5083
aVOther
p5084
aVEnjoyment
p5085
aVOther
p5086
aVDisgust
p5087
aVSadness
p5088
aVEnjoyment
p5089
aVEnjoyment
p5090
aVEnjoyment
p5091
aVOther
p5092
aVOther
p5093
aVOther
p5094
aVEnjoyment
p5095
aVOther
p5096
aVDisgust
p5097
aVEnjoyment
p5098
aVOther
p5099
aVDisgust
p5100
aVSadness
p5101
aVEnjoyment
p5102
aVOther
p5103
aVEnjoyment
p5104
aVEnjoyment
p5105
aVDisgust
p5106
aVOther
p5107
aVSadness
p5108
aVEnjoyment
p5109
aVEnjoyment
p5110
aVFear
p5111
aVAnger
p5112
aVEnjoyment
p5113
aVEnjoyment
p5114
aVEnjoyment
p5115
aVAnger
p5116
aVAnger
p5117
aVFear
p5118
aVDisgust
p5119
aVSadness
p5120
aVOther
p5121
aVFear
p5122
aVOther
p5123
aVEnjoyment
p5124
aVDisgust
p5125
aVSurprise
p5126
aVDisgust
p5127
aVSurprise
p5128
aVOther
p5129
aVSadness
p5130
aVSadness
p5131
aVEnjoyment
p5132
aVDisgust
p5133
aVEnjoyment
p5134
aVAnger
p5135
aVAnger
p5136
aVEnjoyment
p5137
aVEnjoyment
p5138
aVSadness
p5139
aVDisgust
p5140
aVOther
p5141
aVEnjoyment
p5142
aVEnjoyment
p5143
aVEnjoyment
p5144
aVDisgust
p5145
aVOther
p5146
aVSadness
p5147
aVOther
p5148
aVDisgust
p5149
aVOther
p5150
aVEnjoyment
p5151
aVSadness
p5152
aVEnjoyment
p5153
aVEnjoyment
p5154
aVDisgust
p5155
aVSurprise
p5156
aVSurprise
p5157
aVOther
p5158
aVDisgust
p5159
aVEnjoyment
p5160
aVEnjoyment
p5161
aVDisgust
p5162
aVSadness
p5163
aVOther
p5164
aVSadness
p5165
aVOther
p5166
aVEnjoyment
p5167
aVAnger
p5168
aVEnjoyment
p5169
aVEnjoyment
p5170
aVEnjoyment
p5171
aVDisgust
p5172
aVSadness
p5173
aVDisgust
p5174
aVSadness
p5175
aVEnjoyment
p5176
aVDisgust
p5177
aVEnjoyment
p5178
aVOther
p5179
aVFear
p5180
aVEnjoyment
p5181
aVEnjoyment
p5182
aVOther
p5183
aVEnjoyment
p5184
aVOther
p5185
aVDisgust
p5186
aVAnger
p5187
aVSadness
p5188
aVDisgust
p5189
aVOther
p5190
aVEnjoyment
p5191
aVOther
p5192
aVFear
p5193
aVSadness
p5194
aVEnjoyment
p5195
aVOther
p5196
aVEnjoyment
p5197
aVDisgust
p5198
aVSadness
p5199
aVOther
p5200
aVFear
p5201
aVSadness
p5202
aVEnjoyment
p5203
aVSadness
p5204
aVDisgust
p5205
aVEnjoyment
p5206
aVEnjoyment
p5207
aVSadness
p5208
aVOther
p5209
aVSadness
p5210
aVAnger
p5211
aVDisgust
p5212
aVSurprise
p5213
aVAnger
p5214
aVOther
p5215
aVSadness
p5216
aVAnger
p5217
aVEnjoyment
p5218
aVSadness
p5219
aVEnjoyment
p5220
aVEnjoyment
p5221
aVOther
p5222
aVAnger
p5223
aVSadness
p5224
aVDisgust
p5225
aVEnjoyment
p5226
aVOther
p5227
aVDisgust
p5228
aVEnjoyment
p5229
aVEnjoyment
p5230
aVSadness
p5231
aVAnger
p5232
aVDisgust
p5233
aVEnjoyment
p5234
aVOther
p5235
aVEnjoyment
p5236
aVDisgust
p5237
aVOther
p5238
aVOther
p5239
aVAnger
p5240
aVEnjoyment
p5241
aVAnger
p5242
aVEnjoyment
p5243
aVEnjoyment
p5244
aVFear
p5245
aVSadness
p5246
aVSadness
p5247
aVEnjoyment
p5248
aVDisgust
p5249
aVDisgust
p5250
aVOther
p5251
aVDisgust
p5252
aVEnjoyment
p5253
aVFear
p5254
aVSadness
p5255
aVAnger
p5256
aVDisgust
p5257
aVEnjoyment
p5258
aVDisgust
p5259
aVEnjoyment
p5260
aVOther
p5261
aVSadness
p5262
aVDisgust
p5263
aVDisgust
p5264
aVSurprise
p5265
aVEnjoyment
p5266
aVEnjoyment
p5267
aVDisgust
p5268
aVSadness
p5269
aVSadness
p5270
aVOther
p5271
aVEnjoyment
p5272
aVOther
p5273
aVOther
p5274
aVAnger
p5275
aVSurprise
p5276
aVSadness
p5277
aVSadness
p5278
aVSurprise
p5279
aVSadness
p5280
aVEnjoyment
p5281
aVDisgust
p5282
aVFear
p5283
aVOther
p5284
aVOther
p5285
aVEnjoyment
p5286
aVOther
p5287
aVOther
p5288
aVOther
p5289
aVSadness
p5290
aVOther
p5291
aVEnjoyment
p5292
aVEnjoyment
p5293
aVAnger
p5294
aVDisgust
p5295
aVDisgust
p5296
aVEnjoyment
p5297
aVOther
p5298
aVEnjoyment
p5299
aVOther
p5300
aVEnjoyment
p5301
aVAnger
p5302
aVDisgust
p5303
aVDisgust
p5304
aVEnjoyment
p5305
aVSadness
p5306
aVEnjoyment
p5307
aVOther
p5308
aVEnjoyment
p5309
aVAnger
p5310
aVEnjoyment
p5311
aVDisgust
p5312
aVFear
p5313
aVDisgust
p5314
aVDisgust
p5315
aVEnjoyment
p5316
aVDisgust
p5317
aVEnjoyment
p5318
aVEnjoyment
p5319
aVEnjoyment
p5320
aVAnger
p5321
aVDisgust
p5322
aVEnjoyment
p5323
aVSadness
p5324
aVOther
p5325
aVEnjoyment
p5326
aVSurprise
p5327
aVSurprise
p5328
aVSadness
p5329
aVEnjoyment
p5330
aVEnjoyment
p5331
aVEnjoyment
p5332
aVOther
p5333
aVAnger
p5334
aVSurprise
p5335
aVAnger
p5336
aVDisgust
p5337
aVEnjoyment
p5338
aVEnjoyment
p5339
aVEnjoyment
p5340
aVEnjoyment
p5341
aVAnger
p5342
aVOther
p5343
aVEnjoyment
p5344
aVSadness
p5345
aVSadness
p5346
aVEnjoyment
p5347
aVDisgust
p5348
aVDisgust
p5349
aVOther
p5350
aVOther
p5351
aVEnjoyment
p5352
aVDisgust
p5353
aVEnjoyment
p5354
aVDisgust
p5355
aVEnjoyment
p5356
aVDisgust
p5357
aVEnjoyment
p5358
aVDisgust
p5359
aVOther
p5360
aVSadness
p5361
aVAnger
p5362
aVOther
p5363
aVOther
p5364
aVEnjoyment
p5365
aVEnjoyment
p5366
aVEnjoyment
p5367
aVEnjoyment
p5368
aVEnjoyment
p5369
aVEnjoyment
p5370
aVOther
p5371
aVDisgust
p5372
aVEnjoyment
p5373
aVEnjoyment
p5374
aVFear
p5375
aVDisgust
p5376
aVDisgust
p5377
aVEnjoyment
p5378
aVEnjoyment
p5379
aVDisgust
p5380
aVEnjoyment
p5381
aVSurprise
p5382
aVOther
p5383
aVEnjoyment
p5384
aVSurprise
p5385
aVAnger
p5386
aVSadness
p5387
aVDisgust
p5388
aVSadness
p5389
aVEnjoyment
p5390
aVEnjoyment
p5391
aVDisgust
p5392
aVFear
p5393
aVEnjoyment
p5394
aVAnger
p5395
aVSurprise
p5396
aVEnjoyment
p5397
aVEnjoyment
p5398
aVFear
p5399
aVDisgust
p5400
aVSadness
p5401
aVEnjoyment
p5402
aVSadness
p5403
aVDisgust
p5404
aVEnjoyment
p5405
aVEnjoyment
p5406
aVEnjoyment
p5407
aVOther
p5408
aVEnjoyment
p5409
aVDisgust
p5410
aVDisgust
p5411
aVAnger
p5412
aVEnjoyment
p5413
aVOther
p5414
aVEnjoyment
p5415
aVDisgust
p5416
aVSurprise
p5417
aVOther
p5418
aVSadness
p5419
aVDisgust
p5420
aVSurprise
p5421
aVOther
p5422
aVFear
p5423
aVDisgust
p5424
aVOther
p5425
aVSadness
p5426
aVFear
p5427
aVSadness
p5428
aVDisgust
p5429
aVSadness
p5430
aVSadness
p5431
aVDisgust
p5432
aVEnjoyment
p5433
aVOther
p5434
aVDisgust
p5435
aVDisgust
p5436
aVEnjoyment
p5437
aVOther
p5438
aVEnjoyment
p5439
aVSurprise
p5440
aVAnger
p5441
aVSadness
p5442
aVOther
p5443
aVAnger
p5444
aVEnjoyment
p5445
aVEnjoyment
p5446
aVFear
p5447
aVSurprise
p5448
aVDisgust
p5449
aVSadness
p5450
aVSadness
p5451
aVSadness
p5452
aVSadness
p5453
aVEnjoyment
p5454
aVDisgust
p5455
aVEnjoyment
p5456
aVEnjoyment
p5457
aVFear
p5458
aVSurprise
p5459
aVAnger
p5460
aVOther
p5461
aVSadness
p5462
aVFear
p5463
aVEnjoyment
p5464
aVEnjoyment
p5465
aVOther
p5466
aVEnjoyment
p5467
aVEnjoyment
p5468
aVSadness
p5469
aVEnjoyment
p5470
aVAnger
p5471
aVDisgust
p5472
aVSadness
p5473
aVOther
p5474
aVSadness
p5475
aVDisgust
p5476
aVAnger
p5477
aVOther
p5478
aVDisgust
p5479
aVEnjoyment
p5480
aVEnjoyment
p5481
aVOther
p5482
aVEnjoyment
p5483
aVEnjoyment
p5484
aVEnjoyment
p5485
aVFear
p5486
aVEnjoyment
p5487
aVEnjoyment
p5488
aVDisgust
p5489
aVEnjoyment
p5490
aVDisgust
p5491
aVEnjoyment
p5492
aVDisgust
p5493
aVEnjoyment
p5494
aVAnger
p5495
aVEnjoyment
p5496
aVOther
p5497
aVEnjoyment
p5498
aVOther
p5499
aVOther
p5500
aVEnjoyment
p5501
aVOther
p5502
aVSadness
p5503
aVSadness
p5504
aVOther
p5505
aVAnger
p5506
aVOther
p5507
aVDisgust
p5508
aVSadness
p5509
aVSurprise
p5510
aVOther
p5511
aVEnjoyment
p5512
aVOther
p5513
aVSadness
p5514
aVDisgust
p5515
aVDisgust
p5516
aVAnger
p5517
aVEnjoyment
p5518
aVEnjoyment
p5519
aVOther
p5520
aVEnjoyment
p5521
aVEnjoyment
p5522
aVFear
p5523
aVSadness
p5524
aVSadness
p5525
aVDisgust
p5526
aVEnjoyment
p5527
aVFear
p5528
aVEnjoyment
p5529
aVEnjoyment
p5530
aVEnjoyment
p5531
aVOther
p5532
aVOther
p5533
aVAnger
p5534
aVDisgust
p5535
aVSadness
p5536
aVEnjoyment
p5537
aVEnjoyment
p5538
aVOther
p5539
aVOther
p5540
aVDisgust
p5541
aVEnjoyment
p5542
aVOther
p5543
aVEnjoyment
p5544
aVDisgust
p5545
aVOther
p5546
aVOther
p5547
aVEnjoyment
p5548
aVSadness
p5549
a.